
Incubator.elf:     file format elf32-avr

Sections:
Idx Name          Size      VMA       LMA       File off  Algn
  0 .data         000000ba  00800200  0000216e  00002202  2**0
                  CONTENTS, ALLOC, LOAD, DATA
  1 .text         0000216e  00000000  00000000  00000094  2**1
                  CONTENTS, ALLOC, LOAD, READONLY, CODE
  2 .bss          00000043  008002ba  008002ba  000022bc  2**0
                  ALLOC
  3 .stab         000026e8  00000000  00000000  000022bc  2**2
                  CONTENTS, READONLY, DEBUGGING
  4 .stabstr      00000a1e  00000000  00000000  000049a4  2**0
                  CONTENTS, READONLY, DEBUGGING
  5 .comment      0000002f  00000000  00000000  000053c2  2**0
                  CONTENTS, READONLY
  6 .debug_aranges 00000268  00000000  00000000  000053f1  2**0
                  CONTENTS, READONLY, DEBUGGING
  7 .debug_info   00003331  00000000  00000000  00005659  2**0
                  CONTENTS, READONLY, DEBUGGING
  8 .debug_abbrev 00000b1b  00000000  00000000  0000898a  2**0
                  CONTENTS, READONLY, DEBUGGING
  9 .debug_line   00001ca4  00000000  00000000  000094a5  2**0
                  CONTENTS, READONLY, DEBUGGING
 10 .debug_frame  000007d8  00000000  00000000  0000b14c  2**2
                  CONTENTS, READONLY, DEBUGGING
 11 .debug_str    00000c82  00000000  00000000  0000b924  2**0
                  CONTENTS, READONLY, DEBUGGING
 12 .debug_loc    000028ca  00000000  00000000  0000c5a6  2**0
                  CONTENTS, READONLY, DEBUGGING
 13 .debug_ranges 000002a0  00000000  00000000  0000ee70  2**0
                  CONTENTS, READONLY, DEBUGGING

Disassembly of section .text:

00000000 <__vectors>:
       0:	72 c0       	rjmp	.+228    	; 0xe6 <__ctors_end>
       2:	00 00       	nop
       4:	a1 c0       	rjmp	.+322    	; 0x148 <__bad_interrupt>
       6:	00 00       	nop
       8:	9f c0       	rjmp	.+318    	; 0x148 <__bad_interrupt>
       a:	00 00       	nop
       c:	9d c0       	rjmp	.+314    	; 0x148 <__bad_interrupt>
       e:	00 00       	nop
      10:	9b c0       	rjmp	.+310    	; 0x148 <__bad_interrupt>
      12:	00 00       	nop
      14:	99 c0       	rjmp	.+306    	; 0x148 <__bad_interrupt>
      16:	00 00       	nop
      18:	97 c0       	rjmp	.+302    	; 0x148 <__bad_interrupt>
      1a:	00 00       	nop
      1c:	95 c0       	rjmp	.+298    	; 0x148 <__bad_interrupt>
      1e:	00 00       	nop
      20:	93 c0       	rjmp	.+294    	; 0x148 <__bad_interrupt>
      22:	00 00       	nop
      24:	91 c0       	rjmp	.+290    	; 0x148 <__bad_interrupt>
      26:	00 00       	nop
      28:	8f c0       	rjmp	.+286    	; 0x148 <__bad_interrupt>
      2a:	00 00       	nop
      2c:	8d c0       	rjmp	.+282    	; 0x148 <__bad_interrupt>
      2e:	00 00       	nop
      30:	8b c0       	rjmp	.+278    	; 0x148 <__bad_interrupt>
      32:	00 00       	nop
      34:	89 c0       	rjmp	.+274    	; 0x148 <__bad_interrupt>
      36:	00 00       	nop
      38:	87 c0       	rjmp	.+270    	; 0x148 <__bad_interrupt>
      3a:	00 00       	nop
      3c:	85 c0       	rjmp	.+266    	; 0x148 <__bad_interrupt>
      3e:	00 00       	nop
      40:	83 c0       	rjmp	.+262    	; 0x148 <__bad_interrupt>
      42:	00 00       	nop
      44:	81 c0       	rjmp	.+258    	; 0x148 <__bad_interrupt>
      46:	00 00       	nop
      48:	7f c0       	rjmp	.+254    	; 0x148 <__bad_interrupt>
      4a:	00 00       	nop
      4c:	7d c0       	rjmp	.+250    	; 0x148 <__bad_interrupt>
      4e:	00 00       	nop
      50:	7b c0       	rjmp	.+246    	; 0x148 <__bad_interrupt>
      52:	00 00       	nop
      54:	79 c0       	rjmp	.+242    	; 0x148 <__bad_interrupt>
      56:	00 00       	nop
      58:	77 c0       	rjmp	.+238    	; 0x148 <__bad_interrupt>
      5a:	00 00       	nop
      5c:	75 c0       	rjmp	.+234    	; 0x148 <__bad_interrupt>
      5e:	00 00       	nop
      60:	73 c0       	rjmp	.+230    	; 0x148 <__bad_interrupt>
      62:	00 00       	nop
      64:	71 c0       	rjmp	.+226    	; 0x148 <__bad_interrupt>
      66:	00 00       	nop
      68:	6f c0       	rjmp	.+222    	; 0x148 <__bad_interrupt>
      6a:	00 00       	nop
      6c:	6d c0       	rjmp	.+218    	; 0x148 <__bad_interrupt>
      6e:	00 00       	nop
      70:	6b c0       	rjmp	.+214    	; 0x148 <__bad_interrupt>
      72:	00 00       	nop
      74:	69 c0       	rjmp	.+210    	; 0x148 <__bad_interrupt>
      76:	00 00       	nop
      78:	67 c0       	rjmp	.+206    	; 0x148 <__bad_interrupt>
      7a:	00 00       	nop
      7c:	65 c0       	rjmp	.+202    	; 0x148 <__bad_interrupt>
      7e:	00 00       	nop
      80:	56 c6       	rjmp	.+3244   	; 0xd2e <__vector_32>
      82:	00 00       	nop
      84:	61 c0       	rjmp	.+194    	; 0x148 <__bad_interrupt>
      86:	00 00       	nop
      88:	5f c0       	rjmp	.+190    	; 0x148 <__bad_interrupt>
      8a:	00 00       	nop
      8c:	5d c0       	rjmp	.+186    	; 0x148 <__bad_interrupt>
      8e:	00 00       	nop
      90:	5b c0       	rjmp	.+182    	; 0x148 <__bad_interrupt>
      92:	00 00       	nop
      94:	59 c0       	rjmp	.+178    	; 0x148 <__bad_interrupt>
      96:	00 00       	nop
      98:	57 c0       	rjmp	.+174    	; 0x148 <__bad_interrupt>
      9a:	00 00       	nop
      9c:	55 c0       	rjmp	.+170    	; 0x148 <__bad_interrupt>
      9e:	00 00       	nop
      a0:	53 c0       	rjmp	.+166    	; 0x148 <__bad_interrupt>
      a2:	00 00       	nop
      a4:	51 c0       	rjmp	.+162    	; 0x148 <__bad_interrupt>
      a6:	00 00       	nop
      a8:	4f c0       	rjmp	.+158    	; 0x148 <__bad_interrupt>
      aa:	00 00       	nop
      ac:	4d c0       	rjmp	.+154    	; 0x148 <__bad_interrupt>
      ae:	00 00       	nop
      b0:	4b c0       	rjmp	.+150    	; 0x148 <__bad_interrupt>
      b2:	00 00       	nop
      b4:	49 c0       	rjmp	.+146    	; 0x148 <__bad_interrupt>
      b6:	00 00       	nop
      b8:	47 c0       	rjmp	.+142    	; 0x148 <__bad_interrupt>
      ba:	00 00       	nop
      bc:	25 c6       	rjmp	.+3146   	; 0xd08 <__vector_47>
      be:	00 00       	nop
      c0:	43 c0       	rjmp	.+134    	; 0x148 <__bad_interrupt>
      c2:	00 00       	nop
      c4:	41 c0       	rjmp	.+130    	; 0x148 <__bad_interrupt>
      c6:	00 00       	nop
      c8:	3f c0       	rjmp	.+126    	; 0x148 <__bad_interrupt>
      ca:	00 00       	nop
      cc:	3d c0       	rjmp	.+122    	; 0x148 <__bad_interrupt>
      ce:	00 00       	nop
      d0:	3b c0       	rjmp	.+118    	; 0x148 <__bad_interrupt>
      d2:	00 00       	nop
      d4:	39 c0       	rjmp	.+114    	; 0x148 <__bad_interrupt>
      d6:	00 00       	nop
      d8:	37 c0       	rjmp	.+110    	; 0x148 <__bad_interrupt>
      da:	00 00       	nop
      dc:	35 c0       	rjmp	.+106    	; 0x148 <__bad_interrupt>
      de:	00 00       	nop
      e0:	33 c0       	rjmp	.+102    	; 0x148 <__bad_interrupt>
	...

000000e4 <__ctors_start>:
      e4:	ab 0c       	add	r10, r11

000000e6 <__ctors_end>:
      e6:	11 24       	eor	r1, r1
      e8:	1f be       	out	0x3f, r1	; 63
      ea:	cf ef       	ldi	r28, 0xFF	; 255
      ec:	d1 e2       	ldi	r29, 0x21	; 33
      ee:	de bf       	out	0x3e, r29	; 62
      f0:	cd bf       	out	0x3d, r28	; 61
      f2:	00 e0       	ldi	r16, 0x00	; 0
      f4:	0c bf       	out	0x3c, r16	; 60

000000f6 <__do_copy_data>:
      f6:	12 e0       	ldi	r17, 0x02	; 2
      f8:	a0 e0       	ldi	r26, 0x00	; 0
      fa:	b2 e0       	ldi	r27, 0x02	; 2
      fc:	ee e6       	ldi	r30, 0x6E	; 110
      fe:	f1 e2       	ldi	r31, 0x21	; 33
     100:	00 e0       	ldi	r16, 0x00	; 0
     102:	0b bf       	out	0x3b, r16	; 59
     104:	02 c0       	rjmp	.+4      	; 0x10a <__do_copy_data+0x14>
     106:	07 90       	elpm	r0, Z+
     108:	0d 92       	st	X+, r0
     10a:	aa 3b       	cpi	r26, 0xBA	; 186
     10c:	b1 07       	cpc	r27, r17
     10e:	d9 f7       	brne	.-10     	; 0x106 <__do_copy_data+0x10>

00000110 <__do_clear_bss>:
     110:	22 e0       	ldi	r18, 0x02	; 2
     112:	aa eb       	ldi	r26, 0xBA	; 186
     114:	b2 e0       	ldi	r27, 0x02	; 2
     116:	01 c0       	rjmp	.+2      	; 0x11a <.do_clear_bss_start>

00000118 <.do_clear_bss_loop>:
     118:	1d 92       	st	X+, r1

0000011a <.do_clear_bss_start>:
     11a:	ad 3f       	cpi	r26, 0xFD	; 253
     11c:	b2 07       	cpc	r27, r18
     11e:	e1 f7       	brne	.-8      	; 0x118 <.do_clear_bss_loop>

00000120 <__do_global_ctors>:
     120:	10 e0       	ldi	r17, 0x00	; 0
     122:	c6 ee       	ldi	r28, 0xE6	; 230
     124:	d0 e0       	ldi	r29, 0x00	; 0
     126:	00 e0       	ldi	r16, 0x00	; 0
     128:	06 c0       	rjmp	.+12     	; 0x136 <__do_global_ctors+0x16>
     12a:	22 97       	sbiw	r28, 0x02	; 2
     12c:	01 09       	sbc	r16, r1
     12e:	fe 01       	movw	r30, r28
     130:	0b bf       	out	0x3b, r16	; 59
     132:	0e 94 82 10 	call	0x2104	; 0x2104 <__tablejump_elpm__>
     136:	c4 3e       	cpi	r28, 0xE4	; 228
     138:	d1 07       	cpc	r29, r17
     13a:	80 e0       	ldi	r24, 0x00	; 0
     13c:	08 07       	cpc	r16, r24
     13e:	a9 f7       	brne	.-22     	; 0x12a <__do_global_ctors+0xa>
     140:	0e 94 c8 0a 	call	0x1590	; 0x1590 <main>
     144:	0c 94 b5 10 	jmp	0x216a	; 0x216a <_exit>

00000148 <__bad_interrupt>:
     148:	5b cf       	rjmp	.-330    	; 0x0 <__vectors>

0000014a <_ZN8Controls12initControlsEv>:
 */ 
#include "Controls.h"


void Controls::initControls(){
	DDR(FAN_PORT) |= (1 << FAN_PORT);
     14a:	25 b1       	in	r18, 0x05	; 5
     14c:	44 b1       	in	r20, 0x04	; 4
     14e:	81 e0       	ldi	r24, 0x01	; 1
     150:	90 e0       	ldi	r25, 0x00	; 0
     152:	bc 01       	movw	r22, r24
     154:	02 c0       	rjmp	.+4      	; 0x15a <_ZN8Controls12initControlsEv+0x10>
     156:	66 0f       	add	r22, r22
     158:	77 1f       	adc	r23, r23
     15a:	2a 95       	dec	r18
     15c:	e2 f7       	brpl	.-8      	; 0x156 <_ZN8Controls12initControlsEv+0xc>
     15e:	9b 01       	movw	r18, r22
     160:	24 2b       	or	r18, r20
     162:	24 b9       	out	0x04, r18	; 4
	DDR(HEATER_PORT) |= (1 << HEATER_PORT);
     164:	35 b1       	in	r19, 0x05	; 5
     166:	24 b1       	in	r18, 0x04	; 4
     168:	02 c0       	rjmp	.+4      	; 0x16e <_ZN8Controls12initControlsEv+0x24>
     16a:	88 0f       	add	r24, r24
     16c:	99 1f       	adc	r25, r25
     16e:	3a 95       	dec	r19
     170:	e2 f7       	brpl	.-8      	; 0x16a <_ZN8Controls12initControlsEv+0x20>
     172:	82 2b       	or	r24, r18
     174:	84 b9       	out	0x04, r24	; 4
	DDRB |= (1 << PINB7) | (1 << PINB4);
     176:	84 b1       	in	r24, 0x04	; 4
     178:	80 69       	ori	r24, 0x90	; 144
     17a:	84 b9       	out	0x04, r24	; 4
     17c:	08 95       	ret

0000017e <_ZN8Controls8startFanEv>:
	
}

void Controls::startFan(){
	FAN_PORT |= (1 << FAN_PIN);
     17e:	2f 9a       	sbi	0x05, 7	; 5
	PORTB |= (1 << PINB7) | (1 << PINB4);
     180:	85 b1       	in	r24, 0x05	; 5
     182:	80 69       	ori	r24, 0x90	; 144
     184:	85 b9       	out	0x05, r24	; 5
     186:	08 95       	ret

00000188 <_ZN8Controls11startHeaterEv>:
}

void Controls::startHeater() {
	HEATER_PORT |= (1 << HEATER_PIN);
     188:	2c 9a       	sbi	0x05, 4	; 5
     18a:	08 95       	ret

0000018c <_ZN8Controls7stopFanEv>:
}

void Controls::stopFan() {
	FAN_PORT &=~ (1 << FAN_PIN);
     18c:	2f 98       	cbi	0x05, 7	; 5
	PORTB &=~ ((1 << PINB7) | (1 << PINB4));
     18e:	85 b1       	in	r24, 0x05	; 5
     190:	8f 76       	andi	r24, 0x6F	; 111
     192:	85 b9       	out	0x05, r24	; 5
     194:	08 95       	ret

00000196 <_ZN8Controls10stopHeaterEv>:
}

void Controls::stopHeater() {
	HEATER_PORT &=~ (1 << HEATER_PIN);
     196:	2c 98       	cbi	0x05, 4	; 5
     198:	08 95       	ret

0000019a <_ZL9lcd_writeh>:
		}
	}
	if(correctCount)
	return (sensorSum/correctCount);
	return mean;
}
     19a:	95 ed       	ldi	r25, 0xD5	; 213
     19c:	9a 95       	dec	r25
     19e:	f1 f7       	brne	.-4      	; 0x19c <_ZL9lcd_writeh+0x2>
     1a0:	00 00       	nop
     1a2:	88 23       	and	r24, r24
     1a4:	14 f4       	brge	.+4      	; 0x1aa <_ZL9lcd_writeh+0x10>
     1a6:	a5 9a       	sbi	0x14, 5	; 20
     1a8:	01 c0       	rjmp	.+2      	; 0x1ac <_ZL9lcd_writeh+0x12>
     1aa:	a5 98       	cbi	0x14, 5	; 20
     1ac:	86 ff       	sbrs	r24, 6
     1ae:	02 c0       	rjmp	.+4      	; 0x1b4 <_ZL9lcd_writeh+0x1a>
     1b0:	73 9a       	sbi	0x0e, 3	; 14
     1b2:	01 c0       	rjmp	.+2      	; 0x1b6 <_ZL9lcd_writeh+0x1c>
     1b4:	73 98       	cbi	0x0e, 3	; 14
     1b6:	85 ff       	sbrs	r24, 5
     1b8:	06 c0       	rjmp	.+12     	; 0x1c6 <_ZL9lcd_writeh+0x2c>
     1ba:	e2 e0       	ldi	r30, 0x02	; 2
     1bc:	f1 e0       	ldi	r31, 0x01	; 1
     1be:	90 81       	ld	r25, Z
     1c0:	98 60       	ori	r25, 0x08	; 8
     1c2:	90 83       	st	Z, r25
     1c4:	05 c0       	rjmp	.+10     	; 0x1d0 <_ZL9lcd_writeh+0x36>
     1c6:	e2 e0       	ldi	r30, 0x02	; 2
     1c8:	f1 e0       	ldi	r31, 0x01	; 1
     1ca:	90 81       	ld	r25, Z
     1cc:	97 7f       	andi	r25, 0xF7	; 247
     1ce:	90 83       	st	Z, r25
     1d0:	84 ff       	sbrs	r24, 4
     1d2:	06 c0       	rjmp	.+12     	; 0x1e0 <_ZL9lcd_writeh+0x46>
     1d4:	e2 e0       	ldi	r30, 0x02	; 2
     1d6:	f1 e0       	ldi	r31, 0x01	; 1
     1d8:	90 81       	ld	r25, Z
     1da:	90 61       	ori	r25, 0x10	; 16
     1dc:	90 83       	st	Z, r25
     1de:	05 c0       	rjmp	.+10     	; 0x1ea <_ZL9lcd_writeh+0x50>
     1e0:	e2 e0       	ldi	r30, 0x02	; 2
     1e2:	f1 e0       	ldi	r31, 0x01	; 1
     1e4:	90 81       	ld	r25, Z
     1e6:	9f 7e       	andi	r25, 0xEF	; 239
     1e8:	90 83       	st	Z, r25
     1ea:	e2 e0       	ldi	r30, 0x02	; 2
     1ec:	f1 e0       	ldi	r31, 0x01	; 1
     1ee:	90 81       	ld	r25, Z
     1f0:	90 62       	ori	r25, 0x20	; 32
     1f2:	90 83       	st	Z, r25
     1f4:	90 81       	ld	r25, Z
     1f6:	9f 7d       	andi	r25, 0xDF	; 223
     1f8:	90 83       	st	Z, r25
     1fa:	83 ff       	sbrs	r24, 3
     1fc:	02 c0       	rjmp	.+4      	; 0x202 <_ZL9lcd_writeh+0x68>
     1fe:	a5 9a       	sbi	0x14, 5	; 20
     200:	01 c0       	rjmp	.+2      	; 0x204 <_ZL9lcd_writeh+0x6a>
     202:	a5 98       	cbi	0x14, 5	; 20
     204:	82 ff       	sbrs	r24, 2
     206:	02 c0       	rjmp	.+4      	; 0x20c <_ZL9lcd_writeh+0x72>
     208:	73 9a       	sbi	0x0e, 3	; 14
     20a:	01 c0       	rjmp	.+2      	; 0x20e <_ZL9lcd_writeh+0x74>
     20c:	73 98       	cbi	0x0e, 3	; 14
     20e:	81 ff       	sbrs	r24, 1
     210:	06 c0       	rjmp	.+12     	; 0x21e <_ZL9lcd_writeh+0x84>
     212:	e2 e0       	ldi	r30, 0x02	; 2
     214:	f1 e0       	ldi	r31, 0x01	; 1
     216:	90 81       	ld	r25, Z
     218:	98 60       	ori	r25, 0x08	; 8
     21a:	90 83       	st	Z, r25
     21c:	05 c0       	rjmp	.+10     	; 0x228 <_ZL9lcd_writeh+0x8e>
     21e:	e2 e0       	ldi	r30, 0x02	; 2
     220:	f1 e0       	ldi	r31, 0x01	; 1
     222:	90 81       	ld	r25, Z
     224:	97 7f       	andi	r25, 0xF7	; 247
     226:	90 83       	st	Z, r25
     228:	80 ff       	sbrs	r24, 0
     22a:	06 c0       	rjmp	.+12     	; 0x238 <_ZL9lcd_writeh+0x9e>
     22c:	e2 e0       	ldi	r30, 0x02	; 2
     22e:	f1 e0       	ldi	r31, 0x01	; 1
     230:	80 81       	ld	r24, Z
     232:	80 61       	ori	r24, 0x10	; 16
     234:	80 83       	st	Z, r24
     236:	05 c0       	rjmp	.+10     	; 0x242 <_ZL9lcd_writeh+0xa8>
     238:	e2 e0       	ldi	r30, 0x02	; 2
     23a:	f1 e0       	ldi	r31, 0x01	; 1
     23c:	80 81       	ld	r24, Z
     23e:	8f 7e       	andi	r24, 0xEF	; 239
     240:	80 83       	st	Z, r24
     242:	e2 e0       	ldi	r30, 0x02	; 2
     244:	f1 e0       	ldi	r31, 0x01	; 1
     246:	80 81       	ld	r24, Z
     248:	80 62       	ori	r24, 0x20	; 32
     24a:	80 83       	st	Z, r24
     24c:	80 81       	ld	r24, Z
     24e:	8f 7d       	andi	r24, 0xDF	; 223
     250:	80 83       	st	Z, r24
     252:	08 95       	ret

00000254 <_Z9lcd_clearv>:
     254:	e2 e0       	ldi	r30, 0x02	; 2
     256:	f1 e0       	ldi	r31, 0x01	; 1
     258:	80 81       	ld	r24, Z
     25a:	8f 7b       	andi	r24, 0xBF	; 191
     25c:	80 83       	st	Z, r24
     25e:	81 e0       	ldi	r24, 0x01	; 1
     260:	9c df       	rcall	.-200    	; 0x19a <_ZL9lcd_writeh>
     262:	8f e3       	ldi	r24, 0x3F	; 63
     264:	9f e1       	ldi	r25, 0x1F	; 31
     266:	01 97       	sbiw	r24, 0x01	; 1
     268:	f1 f7       	brne	.-4      	; 0x266 <_Z9lcd_clearv+0x12>
     26a:	00 c0       	rjmp	.+0      	; 0x26c <_Z9lcd_clearv+0x18>
     26c:	00 00       	nop
     26e:	08 95       	ret

00000270 <_Z8lcd_putsPKc>:
     270:	cf 93       	push	r28
     272:	df 93       	push	r29
     274:	ec 01       	movw	r28, r24
     276:	e2 e0       	ldi	r30, 0x02	; 2
     278:	f1 e0       	ldi	r31, 0x01	; 1
     27a:	80 81       	ld	r24, Z
     27c:	80 64       	ori	r24, 0x40	; 64
     27e:	80 83       	st	Z, r24
     280:	88 81       	ld	r24, Y
     282:	88 23       	and	r24, r24
     284:	29 f0       	breq	.+10     	; 0x290 <_Z8lcd_putsPKc+0x20>
     286:	21 96       	adiw	r28, 0x01	; 1
     288:	88 df       	rcall	.-240    	; 0x19a <_ZL9lcd_writeh>
     28a:	89 91       	ld	r24, Y+
     28c:	81 11       	cpse	r24, r1
     28e:	fc cf       	rjmp	.-8      	; 0x288 <_Z8lcd_putsPKc+0x18>
     290:	df 91       	pop	r29
     292:	cf 91       	pop	r28
     294:	08 95       	ret

00000296 <_Z9lcd_putchc>:
     296:	e2 e0       	ldi	r30, 0x02	; 2
     298:	f1 e0       	ldi	r31, 0x01	; 1
     29a:	90 81       	ld	r25, Z
     29c:	90 64       	ori	r25, 0x40	; 64
     29e:	90 83       	st	Z, r25
     2a0:	7c cf       	rjmp	.-264    	; 0x19a <_ZL9lcd_writeh>

000002a2 <_Z10lcd_gotoxyhh>:
     2a2:	e2 e0       	ldi	r30, 0x02	; 2
     2a4:	f1 e0       	ldi	r31, 0x01	; 1
     2a6:	90 81       	ld	r25, Z
     2a8:	9f 7b       	andi	r25, 0xBF	; 191
     2aa:	90 83       	st	Z, r25
     2ac:	61 11       	cpse	r22, r1
     2ae:	02 c0       	rjmp	.+4      	; 0x2b4 <_Z10lcd_gotoxyhh+0x12>
     2b0:	80 58       	subi	r24, 0x80	; 128
     2b2:	73 cf       	rjmp	.-282    	; 0x19a <_ZL9lcd_writeh>
     2b4:	61 30       	cpi	r22, 0x01	; 1
     2b6:	11 f4       	brne	.+4      	; 0x2bc <_Z10lcd_gotoxyhh+0x1a>
     2b8:	80 54       	subi	r24, 0x40	; 64
     2ba:	6f cf       	rjmp	.-290    	; 0x19a <_ZL9lcd_writeh>
     2bc:	62 30       	cpi	r22, 0x02	; 2
     2be:	11 f4       	brne	.+4      	; 0x2c4 <_Z10lcd_gotoxyhh+0x22>
     2c0:	8c 56       	subi	r24, 0x6C	; 108
     2c2:	6b cf       	rjmp	.-298    	; 0x19a <_ZL9lcd_writeh>
     2c4:	8c 52       	subi	r24, 0x2C	; 44
     2c6:	69 cf       	rjmp	.-302    	; 0x19a <_ZL9lcd_writeh>

000002c8 <_Z8lcd_initv>:
     2c8:	e1 e0       	ldi	r30, 0x01	; 1
     2ca:	f1 e0       	ldi	r31, 0x01	; 1
     2cc:	80 81       	ld	r24, Z
     2ce:	80 64       	ori	r24, 0x40	; 64
     2d0:	80 83       	st	Z, r24
     2d2:	80 81       	ld	r24, Z
     2d4:	80 62       	ori	r24, 0x20	; 32
     2d6:	80 83       	st	Z, r24
     2d8:	9d 9a       	sbi	0x13, 5	; 19
     2da:	6b 9a       	sbi	0x0d, 3	; 13
     2dc:	80 81       	ld	r24, Z
     2de:	88 60       	ori	r24, 0x08	; 8
     2e0:	80 83       	st	Z, r24
     2e2:	80 81       	ld	r24, Z
     2e4:	80 61       	ori	r24, 0x10	; 16
     2e6:	80 83       	st	Z, r24
     2e8:	e2 e0       	ldi	r30, 0x02	; 2
     2ea:	f1 e0       	ldi	r31, 0x01	; 1
     2ec:	80 81       	ld	r24, Z
     2ee:	8f 7b       	andi	r24, 0xBF	; 191
     2f0:	80 83       	st	Z, r24
     2f2:	80 81       	ld	r24, Z
     2f4:	8f 7d       	andi	r24, 0xDF	; 223
     2f6:	80 83       	st	Z, r24
     2f8:	8f e5       	ldi	r24, 0x5F	; 95
     2fa:	9a ee       	ldi	r25, 0xEA	; 234
     2fc:	01 97       	sbiw	r24, 0x01	; 1
     2fe:	f1 f7       	brne	.-4      	; 0x2fc <_Z8lcd_initv+0x34>
     300:	00 c0       	rjmp	.+0      	; 0x302 <_Z8lcd_initv+0x3a>
     302:	00 00       	nop
     304:	80 81       	ld	r24, Z
     306:	80 61       	ori	r24, 0x10	; 16
     308:	80 83       	st	Z, r24
     30a:	80 81       	ld	r24, Z
     30c:	88 60       	ori	r24, 0x08	; 8
     30e:	80 83       	st	Z, r24
     310:	73 98       	cbi	0x0e, 3	; 14
     312:	a5 98       	cbi	0x14, 5	; 20
     314:	80 81       	ld	r24, Z
     316:	80 62       	ori	r24, 0x20	; 32
     318:	80 83       	st	Z, r24
     31a:	80 81       	ld	r24, Z
     31c:	8f 7d       	andi	r24, 0xDF	; 223
     31e:	80 83       	st	Z, r24
     320:	8f e1       	ldi	r24, 0x1F	; 31
     322:	9e e4       	ldi	r25, 0x4E	; 78
     324:	01 97       	sbiw	r24, 0x01	; 1
     326:	f1 f7       	brne	.-4      	; 0x324 <_Z8lcd_initv+0x5c>
     328:	00 c0       	rjmp	.+0      	; 0x32a <_Z8lcd_initv+0x62>
     32a:	00 00       	nop
     32c:	80 81       	ld	r24, Z
     32e:	80 62       	ori	r24, 0x20	; 32
     330:	80 83       	st	Z, r24
     332:	80 81       	ld	r24, Z
     334:	8f 7d       	andi	r24, 0xDF	; 223
     336:	80 83       	st	Z, r24
     338:	8f e1       	ldi	r24, 0x1F	; 31
     33a:	93 e0       	ldi	r25, 0x03	; 3
     33c:	01 97       	sbiw	r24, 0x01	; 1
     33e:	f1 f7       	brne	.-4      	; 0x33c <_Z8lcd_initv+0x74>
     340:	00 c0       	rjmp	.+0      	; 0x342 <_Z8lcd_initv+0x7a>
     342:	00 00       	nop
     344:	80 81       	ld	r24, Z
     346:	80 62       	ori	r24, 0x20	; 32
     348:	80 83       	st	Z, r24
     34a:	80 81       	ld	r24, Z
     34c:	8f 7d       	andi	r24, 0xDF	; 223
     34e:	80 83       	st	Z, r24
     350:	8f e1       	ldi	r24, 0x1F	; 31
     352:	93 e0       	ldi	r25, 0x03	; 3
     354:	01 97       	sbiw	r24, 0x01	; 1
     356:	f1 f7       	brne	.-4      	; 0x354 <_Z8lcd_initv+0x8c>
     358:	00 c0       	rjmp	.+0      	; 0x35a <_Z8lcd_initv+0x92>
     35a:	00 00       	nop
     35c:	80 81       	ld	r24, Z
     35e:	8f 7e       	andi	r24, 0xEF	; 239
     360:	80 83       	st	Z, r24
     362:	80 81       	ld	r24, Z
     364:	88 60       	ori	r24, 0x08	; 8
     366:	80 83       	st	Z, r24
     368:	73 98       	cbi	0x0e, 3	; 14
     36a:	a5 98       	cbi	0x14, 5	; 20
     36c:	80 81       	ld	r24, Z
     36e:	80 62       	ori	r24, 0x20	; 32
     370:	80 83       	st	Z, r24
     372:	80 81       	ld	r24, Z
     374:	8f 7d       	andi	r24, 0xDF	; 223
     376:	80 83       	st	Z, r24
     378:	88 e2       	ldi	r24, 0x28	; 40
     37a:	0f df       	rcall	.-482    	; 0x19a <_ZL9lcd_writeh>
     37c:	8e e0       	ldi	r24, 0x0E	; 14
     37e:	0d df       	rcall	.-486    	; 0x19a <_ZL9lcd_writeh>
     380:	69 df       	rcall	.-302    	; 0x254 <_Z9lcd_clearv>
     382:	86 e0       	ldi	r24, 0x06	; 6
     384:	0a cf       	rjmp	.-492    	; 0x19a <_ZL9lcd_writeh>

00000386 <_Z7lcd_numii>:
     386:	cf 93       	push	r28
     388:	df 93       	push	r29
     38a:	00 d0       	rcall	.+0      	; 0x38c <_Z7lcd_numii+0x6>
     38c:	00 d0       	rcall	.+0      	; 0x38e <_Z7lcd_numii+0x8>
     38e:	cd b7       	in	r28, 0x3d	; 61
     390:	de b7       	in	r29, 0x3e	; 62
     392:	ab 01       	movw	r20, r22
     394:	be 01       	movw	r22, r28
     396:	6f 5f       	subi	r22, 0xFF	; 255
     398:	7f 4f       	sbci	r23, 0xFF	; 255
     39a:	0e 94 86 10 	call	0x210c	; 0x210c <itoa>
     39e:	ce 01       	movw	r24, r28
     3a0:	01 96       	adiw	r24, 0x01	; 1
     3a2:	66 df       	rcall	.-308    	; 0x270 <_Z8lcd_putsPKc>
     3a4:	26 96       	adiw	r28, 0x06	; 6
     3a6:	0f b6       	in	r0, 0x3f	; 63
     3a8:	f8 94       	cli
     3aa:	de bf       	out	0x3e, r29	; 62
     3ac:	0f be       	out	0x3f, r0	; 63
     3ae:	cd bf       	out	0x3d, r28	; 61
     3b0:	df 91       	pop	r29
     3b2:	cf 91       	pop	r28
     3b4:	08 95       	ret

000003b6 <_Z6PrintfhPcz>:
     3b6:	4f 92       	push	r4
     3b8:	5f 92       	push	r5
     3ba:	6f 92       	push	r6
     3bc:	7f 92       	push	r7
     3be:	af 92       	push	r10
     3c0:	bf 92       	push	r11
     3c2:	cf 92       	push	r12
     3c4:	df 92       	push	r13
     3c6:	ef 92       	push	r14
     3c8:	ff 92       	push	r15
     3ca:	0f 93       	push	r16
     3cc:	1f 93       	push	r17
     3ce:	cf 93       	push	r28
     3d0:	df 93       	push	r29
     3d2:	cd b7       	in	r28, 0x3d	; 61
     3d4:	de b7       	in	r29, 0x3e	; 62
     3d6:	8a 89       	ldd	r24, Y+18	; 0x12
     3d8:	eb 88       	ldd	r14, Y+19	; 0x13
     3da:	fc 88       	ldd	r15, Y+20	; 0x14
     3dc:	81 30       	cpi	r24, 0x01	; 1
     3de:	21 f4       	brne	.+8      	; 0x3e8 <_Z6PrintfhPcz+0x32>
     3e0:	60 e0       	ldi	r22, 0x00	; 0
     3e2:	80 e0       	ldi	r24, 0x00	; 0
     3e4:	5e df       	rcall	.-324    	; 0x2a2 <_Z10lcd_gotoxyhh>
     3e6:	11 c0       	rjmp	.+34     	; 0x40a <_Z6PrintfhPcz+0x54>
     3e8:	82 30       	cpi	r24, 0x02	; 2
     3ea:	21 f4       	brne	.+8      	; 0x3f4 <_Z6PrintfhPcz+0x3e>
     3ec:	61 e0       	ldi	r22, 0x01	; 1
     3ee:	80 e0       	ldi	r24, 0x00	; 0
     3f0:	58 df       	rcall	.-336    	; 0x2a2 <_Z10lcd_gotoxyhh>
     3f2:	0b c0       	rjmp	.+22     	; 0x40a <_Z6PrintfhPcz+0x54>
     3f4:	83 30       	cpi	r24, 0x03	; 3
     3f6:	21 f4       	brne	.+8      	; 0x400 <_Z6PrintfhPcz+0x4a>
     3f8:	62 e0       	ldi	r22, 0x02	; 2
     3fa:	80 e0       	ldi	r24, 0x00	; 0
     3fc:	52 df       	rcall	.-348    	; 0x2a2 <_Z10lcd_gotoxyhh>
     3fe:	05 c0       	rjmp	.+10     	; 0x40a <_Z6PrintfhPcz+0x54>
     400:	84 30       	cpi	r24, 0x04	; 4
     402:	19 f4       	brne	.+6      	; 0x40a <_Z6PrintfhPcz+0x54>
     404:	63 e0       	ldi	r22, 0x03	; 3
     406:	80 e0       	ldi	r24, 0x00	; 0
     408:	4c df       	rcall	.-360    	; 0x2a2 <_Z10lcd_gotoxyhh>
     40a:	6e 01       	movw	r12, r28
     40c:	85 e1       	ldi	r24, 0x15	; 21
     40e:	c8 0e       	add	r12, r24
     410:	d1 1c       	adc	r13, r1
     412:	f7 01       	movw	r30, r14
     414:	80 81       	ld	r24, Z
     416:	88 23       	and	r24, r24
     418:	09 f4       	brne	.+2      	; 0x41c <_Z6PrintfhPcz+0x66>
     41a:	b2 c0       	rjmp	.+356    	; 0x580 <_Z6PrintfhPcz+0x1ca>
     41c:	85 32       	cpi	r24, 0x25	; 37
     41e:	09 f0       	breq	.+2      	; 0x422 <_Z6PrintfhPcz+0x6c>
     420:	98 c0       	rjmp	.+304    	; 0x552 <_Z6PrintfhPcz+0x19c>
     422:	87 01       	movw	r16, r14
     424:	0f 5f       	subi	r16, 0xFF	; 255
     426:	1f 4f       	sbci	r17, 0xFF	; 255
     428:	f7 01       	movw	r30, r14
     42a:	81 81       	ldd	r24, Z+1	; 0x01
     42c:	86 36       	cpi	r24, 0x66	; 102
     42e:	09 f4       	brne	.+2      	; 0x432 <_Z6PrintfhPcz+0x7c>
     430:	49 c0       	rjmp	.+146    	; 0x4c4 <_Z6PrintfhPcz+0x10e>
     432:	30 f4       	brcc	.+12     	; 0x440 <_Z6PrintfhPcz+0x8a>
     434:	82 36       	cpi	r24, 0x62	; 98
     436:	61 f0       	breq	.+24     	; 0x450 <_Z6PrintfhPcz+0x9a>
     438:	84 36       	cpi	r24, 0x64	; 100
     43a:	09 f0       	breq	.+2      	; 0x43e <_Z6PrintfhPcz+0x88>
     43c:	86 c0       	rjmp	.+268    	; 0x54a <_Z6PrintfhPcz+0x194>
     43e:	20 c0       	rjmp	.+64     	; 0x480 <_Z6PrintfhPcz+0xca>
     440:	83 37       	cpi	r24, 0x73	; 115
     442:	51 f1       	breq	.+84     	; 0x498 <_Z6PrintfhPcz+0xe2>
     444:	88 37       	cpi	r24, 0x78	; 120
     446:	81 f0       	breq	.+32     	; 0x468 <_Z6PrintfhPcz+0xb2>
     448:	8f 36       	cpi	r24, 0x6F	; 111
     44a:	09 f0       	breq	.+2      	; 0x44e <_Z6PrintfhPcz+0x98>
     44c:	7e c0       	rjmp	.+252    	; 0x54a <_Z6PrintfhPcz+0x194>
     44e:	71 c0       	rjmp	.+226    	; 0x532 <_Z6PrintfhPcz+0x17c>
     450:	76 01       	movw	r14, r12
     452:	f2 e0       	ldi	r31, 0x02	; 2
     454:	ef 0e       	add	r14, r31
     456:	f1 1c       	adc	r15, r1
     458:	62 e0       	ldi	r22, 0x02	; 2
     45a:	70 e0       	ldi	r23, 0x00	; 0
     45c:	f6 01       	movw	r30, r12
     45e:	80 81       	ld	r24, Z
     460:	91 81       	ldd	r25, Z+1	; 0x01
     462:	91 df       	rcall	.-222    	; 0x386 <_Z7lcd_numii>
     464:	67 01       	movw	r12, r14
     466:	84 c0       	rjmp	.+264    	; 0x570 <_Z6PrintfhPcz+0x1ba>
     468:	76 01       	movw	r14, r12
     46a:	f2 e0       	ldi	r31, 0x02	; 2
     46c:	ef 0e       	add	r14, r31
     46e:	f1 1c       	adc	r15, r1
     470:	60 e1       	ldi	r22, 0x10	; 16
     472:	70 e0       	ldi	r23, 0x00	; 0
     474:	f6 01       	movw	r30, r12
     476:	80 81       	ld	r24, Z
     478:	91 81       	ldd	r25, Z+1	; 0x01
     47a:	85 df       	rcall	.-246    	; 0x386 <_Z7lcd_numii>
     47c:	67 01       	movw	r12, r14
     47e:	78 c0       	rjmp	.+240    	; 0x570 <_Z6PrintfhPcz+0x1ba>
     480:	76 01       	movw	r14, r12
     482:	f2 e0       	ldi	r31, 0x02	; 2
     484:	ef 0e       	add	r14, r31
     486:	f1 1c       	adc	r15, r1
     488:	6a e0       	ldi	r22, 0x0A	; 10
     48a:	70 e0       	ldi	r23, 0x00	; 0
     48c:	f6 01       	movw	r30, r12
     48e:	80 81       	ld	r24, Z
     490:	91 81       	ldd	r25, Z+1	; 0x01
     492:	79 df       	rcall	.-270    	; 0x386 <_Z7lcd_numii>
     494:	67 01       	movw	r12, r14
     496:	6c c0       	rjmp	.+216    	; 0x570 <_Z6PrintfhPcz+0x1ba>
     498:	f6 01       	movw	r30, r12
     49a:	82 e0       	ldi	r24, 0x02	; 2
     49c:	c8 0e       	add	r12, r24
     49e:	d1 1c       	adc	r13, r1
     4a0:	01 90       	ld	r0, Z+
     4a2:	f0 81       	ld	r31, Z
     4a4:	e0 2d       	mov	r30, r0
     4a6:	80 81       	ld	r24, Z
     4a8:	88 23       	and	r24, r24
     4aa:	09 f4       	brne	.+2      	; 0x4ae <_Z6PrintfhPcz+0xf8>
     4ac:	61 c0       	rjmp	.+194    	; 0x570 <_Z6PrintfhPcz+0x1ba>
     4ae:	7f 01       	movw	r14, r30
     4b0:	9f ef       	ldi	r25, 0xFF	; 255
     4b2:	e9 1a       	sub	r14, r25
     4b4:	f9 0a       	sbc	r15, r25
     4b6:	ef de       	rcall	.-546    	; 0x296 <_Z9lcd_putchc>
     4b8:	f7 01       	movw	r30, r14
     4ba:	81 91       	ld	r24, Z+
     4bc:	7f 01       	movw	r14, r30
     4be:	81 11       	cpse	r24, r1
     4c0:	fa cf       	rjmp	.-12     	; 0x4b6 <_Z6PrintfhPcz+0x100>
     4c2:	56 c0       	rjmp	.+172    	; 0x570 <_Z6PrintfhPcz+0x1ba>
     4c4:	56 01       	movw	r10, r12
     4c6:	f4 e0       	ldi	r31, 0x04	; 4
     4c8:	af 0e       	add	r10, r31
     4ca:	b1 1c       	adc	r11, r1
     4cc:	f6 01       	movw	r30, r12
     4ce:	40 80       	ld	r4, Z
     4d0:	51 80       	ldd	r5, Z+1	; 0x01
     4d2:	62 80       	ldd	r6, Z+2	; 0x02
     4d4:	73 80       	ldd	r7, Z+3	; 0x03
     4d6:	c3 01       	movw	r24, r6
     4d8:	b2 01       	movw	r22, r4
     4da:	0e 94 24 0f 	call	0x1e48	; 0x1e48 <__fixsfsi>
     4de:	6b 01       	movw	r12, r22
     4e0:	7c 01       	movw	r14, r24
     4e2:	88 27       	eor	r24, r24
     4e4:	77 fd       	sbrc	r23, 7
     4e6:	80 95       	com	r24
     4e8:	98 2f       	mov	r25, r24
     4ea:	0e 94 57 0f 	call	0x1eae	; 0x1eae <__floatsisf>
     4ee:	9b 01       	movw	r18, r22
     4f0:	ac 01       	movw	r20, r24
     4f2:	c3 01       	movw	r24, r6
     4f4:	b2 01       	movw	r22, r4
     4f6:	0e 94 53 0e 	call	0x1ca6	; 0x1ca6 <__subsf3>
     4fa:	20 e0       	ldi	r18, 0x00	; 0
     4fc:	30 e0       	ldi	r19, 0x00	; 0
     4fe:	48 ec       	ldi	r20, 0xC8	; 200
     500:	52 e4       	ldi	r21, 0x42	; 66
     502:	0e 94 0b 10 	call	0x2016	; 0x2016 <__mulsf3>
     506:	0e 94 24 0f 	call	0x1e48	; 0x1e48 <__fixsfsi>
     50a:	66 2e       	mov	r6, r22
     50c:	77 2e       	mov	r7, r23
     50e:	6a e0       	ldi	r22, 0x0A	; 10
     510:	70 e0       	ldi	r23, 0x00	; 0
     512:	c6 01       	movw	r24, r12
     514:	38 df       	rcall	.-400    	; 0x386 <_Z7lcd_numii>
     516:	8e e2       	ldi	r24, 0x2E	; 46
     518:	be de       	rcall	.-644    	; 0x296 <_Z9lcd_putchc>
     51a:	86 2d       	mov	r24, r6
     51c:	97 2d       	mov	r25, r7
     51e:	99 23       	and	r25, r25
     520:	1c f4       	brge	.+6      	; 0x528 <_Z6PrintfhPcz+0x172>
     522:	91 95       	neg	r25
     524:	81 95       	neg	r24
     526:	91 09       	sbc	r25, r1
     528:	6a e0       	ldi	r22, 0x0A	; 10
     52a:	70 e0       	ldi	r23, 0x00	; 0
     52c:	2c df       	rcall	.-424    	; 0x386 <_Z7lcd_numii>
     52e:	65 01       	movw	r12, r10
     530:	1f c0       	rjmp	.+62     	; 0x570 <_Z6PrintfhPcz+0x1ba>
     532:	76 01       	movw	r14, r12
     534:	f2 e0       	ldi	r31, 0x02	; 2
     536:	ef 0e       	add	r14, r31
     538:	f1 1c       	adc	r15, r1
     53a:	68 e0       	ldi	r22, 0x08	; 8
     53c:	70 e0       	ldi	r23, 0x00	; 0
     53e:	f6 01       	movw	r30, r12
     540:	80 81       	ld	r24, Z
     542:	91 81       	ldd	r25, Z+1	; 0x01
     544:	20 df       	rcall	.-448    	; 0x386 <_Z7lcd_numii>
     546:	67 01       	movw	r12, r14
     548:	13 c0       	rjmp	.+38     	; 0x570 <_Z6PrintfhPcz+0x1ba>
     54a:	85 e2       	ldi	r24, 0x25	; 37
     54c:	a4 de       	rcall	.-696    	; 0x296 <_Z9lcd_putchc>
     54e:	87 01       	movw	r16, r14
     550:	0f c0       	rjmp	.+30     	; 0x570 <_Z6PrintfhPcz+0x1ba>
     552:	89 30       	cpi	r24, 0x09	; 9
     554:	21 f4       	brne	.+8      	; 0x55e <_Z6PrintfhPcz+0x1a8>
     556:	80 e2       	ldi	r24, 0x20	; 32
     558:	9e de       	rcall	.-708    	; 0x296 <_Z9lcd_putchc>
     55a:	87 01       	movw	r16, r14
     55c:	09 c0       	rjmp	.+18     	; 0x570 <_Z6PrintfhPcz+0x1ba>
     55e:	8a 30       	cpi	r24, 0x0A	; 10
     560:	29 f4       	brne	.+10     	; 0x56c <_Z6PrintfhPcz+0x1b6>
     562:	61 e0       	ldi	r22, 0x01	; 1
     564:	80 e0       	ldi	r24, 0x00	; 0
     566:	9d de       	rcall	.-710    	; 0x2a2 <_Z10lcd_gotoxyhh>
     568:	87 01       	movw	r16, r14
     56a:	02 c0       	rjmp	.+4      	; 0x570 <_Z6PrintfhPcz+0x1ba>
     56c:	94 de       	rcall	.-728    	; 0x296 <_Z9lcd_putchc>
     56e:	87 01       	movw	r16, r14
     570:	78 01       	movw	r14, r16
     572:	ff ef       	ldi	r31, 0xFF	; 255
     574:	ef 1a       	sub	r14, r31
     576:	ff 0a       	sbc	r15, r31
     578:	f8 01       	movw	r30, r16
     57a:	81 81       	ldd	r24, Z+1	; 0x01
     57c:	81 11       	cpse	r24, r1
     57e:	4e cf       	rjmp	.-356    	; 0x41c <_Z6PrintfhPcz+0x66>
     580:	df 91       	pop	r29
     582:	cf 91       	pop	r28
     584:	1f 91       	pop	r17
     586:	0f 91       	pop	r16
     588:	ff 90       	pop	r15
     58a:	ef 90       	pop	r14
     58c:	df 90       	pop	r13
     58e:	cf 90       	pop	r12
     590:	bf 90       	pop	r11
     592:	af 90       	pop	r10
     594:	7f 90       	pop	r7
     596:	6f 90       	pop	r6
     598:	5f 90       	pop	r5
     59a:	4f 90       	pop	r4
     59c:	08 95       	ret

0000059e <_Z11keypad_initv>:
     59e:	87 b1       	in	r24, 0x07	; 7
     5a0:	82 68       	ori	r24, 0x82	; 130
     5a2:	87 b9       	out	0x07, r24	; 7
     5a4:	87 b1       	in	r24, 0x07	; 7
     5a6:	88 62       	ori	r24, 0x28	; 40
     5a8:	87 b9       	out	0x07, r24	; 7
     5aa:	81 b1       	in	r24, 0x01	; 1
     5ac:	8a 7a       	andi	r24, 0xAA	; 170
     5ae:	81 b9       	out	0x01, r24	; 1
     5b0:	88 b1       	in	r24, 0x08	; 8
     5b2:	8a 6a       	ori	r24, 0xAA	; 170
     5b4:	88 b9       	out	0x08, r24	; 8
     5b6:	82 b1       	in	r24, 0x02	; 2
     5b8:	85 65       	ori	r24, 0x55	; 85
     5ba:	82 b9       	out	0x02, r24	; 2
     5bc:	08 95       	ret

000005be <_Z12keypad_checkv>:
     5be:	41 98       	cbi	0x08, 1	; 8
     5c0:	43 9a       	sbi	0x08, 3	; 8
     5c2:	45 9a       	sbi	0x08, 5	; 8
     5c4:	47 9a       	sbi	0x08, 7	; 8
     5c6:	8f e5       	ldi	r24, 0x5F	; 95
     5c8:	9a ee       	ldi	r25, 0xEA	; 234
     5ca:	01 97       	sbiw	r24, 0x01	; 1
     5cc:	f1 f7       	brne	.-4      	; 0x5ca <_Z12keypad_checkv+0xc>
     5ce:	00 c0       	rjmp	.+0      	; 0x5d0 <_Z12keypad_checkv+0x12>
     5d0:	00 00       	nop
     5d2:	06 99       	sbic	0x00, 6	; 0
     5d4:	61 c0       	rjmp	.+194    	; 0x698 <_Z12keypad_checkv+0xda>
     5d6:	31 9b       	sbis	0x06, 1	; 6
     5d8:	30 c0       	rjmp	.+96     	; 0x63a <_Z12keypad_checkv+0x7c>
     5da:	5e c0       	rjmp	.+188    	; 0x698 <_Z12keypad_checkv+0xda>
     5dc:	31 9b       	sbis	0x06, 1	; 6
     5de:	30 c0       	rjmp	.+96     	; 0x640 <_Z12keypad_checkv+0x82>
     5e0:	5d c0       	rjmp	.+186    	; 0x69c <_Z12keypad_checkv+0xde>
     5e2:	31 9b       	sbis	0x06, 1	; 6
     5e4:	30 c0       	rjmp	.+96     	; 0x646 <_Z12keypad_checkv+0x88>
     5e6:	5c c0       	rjmp	.+184    	; 0x6a0 <_Z12keypad_checkv+0xe2>
     5e8:	31 9b       	sbis	0x06, 1	; 6
     5ea:	30 c0       	rjmp	.+96     	; 0x64c <_Z12keypad_checkv+0x8e>
     5ec:	5b c0       	rjmp	.+182    	; 0x6a4 <_Z12keypad_checkv+0xe6>
     5ee:	33 9b       	sbis	0x06, 3	; 6
     5f0:	30 c0       	rjmp	.+96     	; 0x652 <_Z12keypad_checkv+0x94>
     5f2:	68 c0       	rjmp	.+208    	; 0x6c4 <_Z12keypad_checkv+0x106>
     5f4:	33 9b       	sbis	0x06, 3	; 6
     5f6:	30 c0       	rjmp	.+96     	; 0x658 <_Z12keypad_checkv+0x9a>
     5f8:	67 c0       	rjmp	.+206    	; 0x6c8 <_Z12keypad_checkv+0x10a>
     5fa:	33 9b       	sbis	0x06, 3	; 6
     5fc:	30 c0       	rjmp	.+96     	; 0x65e <_Z12keypad_checkv+0xa0>
     5fe:	66 c0       	rjmp	.+204    	; 0x6cc <_Z12keypad_checkv+0x10e>
     600:	33 9b       	sbis	0x06, 3	; 6
     602:	30 c0       	rjmp	.+96     	; 0x664 <_Z12keypad_checkv+0xa6>
     604:	65 c0       	rjmp	.+202    	; 0x6d0 <_Z12keypad_checkv+0x112>
     606:	35 9b       	sbis	0x06, 5	; 6
     608:	30 c0       	rjmp	.+96     	; 0x66a <_Z12keypad_checkv+0xac>
     60a:	72 c0       	rjmp	.+228    	; 0x6f0 <_Z12keypad_checkv+0x132>
     60c:	35 9b       	sbis	0x06, 5	; 6
     60e:	30 c0       	rjmp	.+96     	; 0x670 <_Z12keypad_checkv+0xb2>
     610:	71 c0       	rjmp	.+226    	; 0x6f4 <_Z12keypad_checkv+0x136>
     612:	35 9b       	sbis	0x06, 5	; 6
     614:	30 c0       	rjmp	.+96     	; 0x676 <_Z12keypad_checkv+0xb8>
     616:	70 c0       	rjmp	.+224    	; 0x6f8 <_Z12keypad_checkv+0x13a>
     618:	35 9b       	sbis	0x06, 5	; 6
     61a:	30 c0       	rjmp	.+96     	; 0x67c <_Z12keypad_checkv+0xbe>
     61c:	6f c0       	rjmp	.+222    	; 0x6fc <_Z12keypad_checkv+0x13e>
     61e:	37 9b       	sbis	0x06, 7	; 6
     620:	30 c0       	rjmp	.+96     	; 0x682 <_Z12keypad_checkv+0xc4>
     622:	7c c0       	rjmp	.+248    	; 0x71c <_Z12keypad_checkv+0x15e>
     624:	37 9b       	sbis	0x06, 7	; 6
     626:	30 c0       	rjmp	.+96     	; 0x688 <_Z12keypad_checkv+0xca>
     628:	7b c0       	rjmp	.+246    	; 0x720 <_Z12keypad_checkv+0x162>
     62a:	37 9b       	sbis	0x06, 7	; 6
     62c:	30 c0       	rjmp	.+96     	; 0x68e <_Z12keypad_checkv+0xd0>
     62e:	7a c0       	rjmp	.+244    	; 0x724 <_Z12keypad_checkv+0x166>
     630:	37 99       	sbic	0x06, 7	; 6
     632:	7a c0       	rjmp	.+244    	; 0x728 <_Z12keypad_checkv+0x16a>
     634:	20 e1       	ldi	r18, 0x10	; 16
     636:	30 e0       	ldi	r19, 0x00	; 0
     638:	2c c0       	rjmp	.+88     	; 0x692 <_Z12keypad_checkv+0xd4>
     63a:	21 e0       	ldi	r18, 0x01	; 1
     63c:	30 e0       	ldi	r19, 0x00	; 0
     63e:	29 c0       	rjmp	.+82     	; 0x692 <_Z12keypad_checkv+0xd4>
     640:	24 e0       	ldi	r18, 0x04	; 4
     642:	30 e0       	ldi	r19, 0x00	; 0
     644:	26 c0       	rjmp	.+76     	; 0x692 <_Z12keypad_checkv+0xd4>
     646:	27 e0       	ldi	r18, 0x07	; 7
     648:	30 e0       	ldi	r19, 0x00	; 0
     64a:	23 c0       	rjmp	.+70     	; 0x692 <_Z12keypad_checkv+0xd4>
     64c:	2c e0       	ldi	r18, 0x0C	; 12
     64e:	30 e0       	ldi	r19, 0x00	; 0
     650:	20 c0       	rjmp	.+64     	; 0x692 <_Z12keypad_checkv+0xd4>
     652:	22 e0       	ldi	r18, 0x02	; 2
     654:	30 e0       	ldi	r19, 0x00	; 0
     656:	1d c0       	rjmp	.+58     	; 0x692 <_Z12keypad_checkv+0xd4>
     658:	25 e0       	ldi	r18, 0x05	; 5
     65a:	30 e0       	ldi	r19, 0x00	; 0
     65c:	1a c0       	rjmp	.+52     	; 0x692 <_Z12keypad_checkv+0xd4>
     65e:	28 e0       	ldi	r18, 0x08	; 8
     660:	30 e0       	ldi	r19, 0x00	; 0
     662:	17 c0       	rjmp	.+46     	; 0x692 <_Z12keypad_checkv+0xd4>
     664:	20 e0       	ldi	r18, 0x00	; 0
     666:	30 e0       	ldi	r19, 0x00	; 0
     668:	14 c0       	rjmp	.+40     	; 0x692 <_Z12keypad_checkv+0xd4>
     66a:	23 e0       	ldi	r18, 0x03	; 3
     66c:	30 e0       	ldi	r19, 0x00	; 0
     66e:	11 c0       	rjmp	.+34     	; 0x692 <_Z12keypad_checkv+0xd4>
     670:	26 e0       	ldi	r18, 0x06	; 6
     672:	30 e0       	ldi	r19, 0x00	; 0
     674:	0e c0       	rjmp	.+28     	; 0x692 <_Z12keypad_checkv+0xd4>
     676:	29 e0       	ldi	r18, 0x09	; 9
     678:	30 e0       	ldi	r19, 0x00	; 0
     67a:	0b c0       	rjmp	.+22     	; 0x692 <_Z12keypad_checkv+0xd4>
     67c:	2b e0       	ldi	r18, 0x0B	; 11
     67e:	30 e0       	ldi	r19, 0x00	; 0
     680:	08 c0       	rjmp	.+16     	; 0x692 <_Z12keypad_checkv+0xd4>
     682:	2d e0       	ldi	r18, 0x0D	; 13
     684:	30 e0       	ldi	r19, 0x00	; 0
     686:	05 c0       	rjmp	.+10     	; 0x692 <_Z12keypad_checkv+0xd4>
     688:	2e e0       	ldi	r18, 0x0E	; 14
     68a:	30 e0       	ldi	r19, 0x00	; 0
     68c:	02 c0       	rjmp	.+4      	; 0x692 <_Z12keypad_checkv+0xd4>
     68e:	2f e0       	ldi	r18, 0x0F	; 15
     690:	30 e0       	ldi	r19, 0x00	; 0
     692:	82 2f       	mov	r24, r18
     694:	93 2f       	mov	r25, r19
     696:	08 95       	ret
     698:	04 9b       	sbis	0x00, 4	; 0
     69a:	a0 cf       	rjmp	.-192    	; 0x5dc <_Z12keypad_checkv+0x1e>
     69c:	02 9b       	sbis	0x00, 2	; 0
     69e:	a1 cf       	rjmp	.-190    	; 0x5e2 <_Z12keypad_checkv+0x24>
     6a0:	00 9b       	sbis	0x00, 0	; 0
     6a2:	a2 cf       	rjmp	.-188    	; 0x5e8 <_Z12keypad_checkv+0x2a>
     6a4:	41 9a       	sbi	0x08, 1	; 8
     6a6:	8f e1       	ldi	r24, 0x1F	; 31
     6a8:	9e e4       	ldi	r25, 0x4E	; 78
     6aa:	01 97       	sbiw	r24, 0x01	; 1
     6ac:	f1 f7       	brne	.-4      	; 0x6aa <_Z12keypad_checkv+0xec>
     6ae:	00 c0       	rjmp	.+0      	; 0x6b0 <_Z12keypad_checkv+0xf2>
     6b0:	00 00       	nop
     6b2:	43 98       	cbi	0x08, 3	; 8
     6b4:	8f e5       	ldi	r24, 0x5F	; 95
     6b6:	9a ee       	ldi	r25, 0xEA	; 234
     6b8:	01 97       	sbiw	r24, 0x01	; 1
     6ba:	f1 f7       	brne	.-4      	; 0x6b8 <_Z12keypad_checkv+0xfa>
     6bc:	00 c0       	rjmp	.+0      	; 0x6be <_Z12keypad_checkv+0x100>
     6be:	00 00       	nop
     6c0:	06 9b       	sbis	0x00, 6	; 0
     6c2:	95 cf       	rjmp	.-214    	; 0x5ee <_Z12keypad_checkv+0x30>
     6c4:	04 9b       	sbis	0x00, 4	; 0
     6c6:	96 cf       	rjmp	.-212    	; 0x5f4 <_Z12keypad_checkv+0x36>
     6c8:	02 9b       	sbis	0x00, 2	; 0
     6ca:	97 cf       	rjmp	.-210    	; 0x5fa <_Z12keypad_checkv+0x3c>
     6cc:	00 9b       	sbis	0x00, 0	; 0
     6ce:	98 cf       	rjmp	.-208    	; 0x600 <_Z12keypad_checkv+0x42>
     6d0:	43 9a       	sbi	0x08, 3	; 8
     6d2:	8f e1       	ldi	r24, 0x1F	; 31
     6d4:	9e e4       	ldi	r25, 0x4E	; 78
     6d6:	01 97       	sbiw	r24, 0x01	; 1
     6d8:	f1 f7       	brne	.-4      	; 0x6d6 <_Z12keypad_checkv+0x118>
     6da:	00 c0       	rjmp	.+0      	; 0x6dc <_Z12keypad_checkv+0x11e>
     6dc:	00 00       	nop
     6de:	45 98       	cbi	0x08, 5	; 8
     6e0:	8f e5       	ldi	r24, 0x5F	; 95
     6e2:	9a ee       	ldi	r25, 0xEA	; 234
     6e4:	01 97       	sbiw	r24, 0x01	; 1
     6e6:	f1 f7       	brne	.-4      	; 0x6e4 <_Z12keypad_checkv+0x126>
     6e8:	00 c0       	rjmp	.+0      	; 0x6ea <_Z12keypad_checkv+0x12c>
     6ea:	00 00       	nop
     6ec:	06 9b       	sbis	0x00, 6	; 0
     6ee:	8b cf       	rjmp	.-234    	; 0x606 <_Z12keypad_checkv+0x48>
     6f0:	04 9b       	sbis	0x00, 4	; 0
     6f2:	8c cf       	rjmp	.-232    	; 0x60c <_Z12keypad_checkv+0x4e>
     6f4:	02 9b       	sbis	0x00, 2	; 0
     6f6:	8d cf       	rjmp	.-230    	; 0x612 <_Z12keypad_checkv+0x54>
     6f8:	00 9b       	sbis	0x00, 0	; 0
     6fa:	8e cf       	rjmp	.-228    	; 0x618 <_Z12keypad_checkv+0x5a>
     6fc:	45 9a       	sbi	0x08, 5	; 8
     6fe:	8f e1       	ldi	r24, 0x1F	; 31
     700:	9e e4       	ldi	r25, 0x4E	; 78
     702:	01 97       	sbiw	r24, 0x01	; 1
     704:	f1 f7       	brne	.-4      	; 0x702 <_Z12keypad_checkv+0x144>
     706:	00 c0       	rjmp	.+0      	; 0x708 <_Z12keypad_checkv+0x14a>
     708:	00 00       	nop
     70a:	47 98       	cbi	0x08, 7	; 8
     70c:	8f e5       	ldi	r24, 0x5F	; 95
     70e:	9a ee       	ldi	r25, 0xEA	; 234
     710:	01 97       	sbiw	r24, 0x01	; 1
     712:	f1 f7       	brne	.-4      	; 0x710 <_Z12keypad_checkv+0x152>
     714:	00 c0       	rjmp	.+0      	; 0x716 <_Z12keypad_checkv+0x158>
     716:	00 00       	nop
     718:	06 9b       	sbis	0x00, 6	; 0
     71a:	81 cf       	rjmp	.-254    	; 0x61e <_Z12keypad_checkv+0x60>
     71c:	04 9b       	sbis	0x00, 4	; 0
     71e:	82 cf       	rjmp	.-252    	; 0x624 <_Z12keypad_checkv+0x66>
     720:	02 9b       	sbis	0x00, 2	; 0
     722:	83 cf       	rjmp	.-250    	; 0x62a <_Z12keypad_checkv+0x6c>
     724:	00 9b       	sbis	0x00, 0	; 0
     726:	84 cf       	rjmp	.-248    	; 0x630 <_Z12keypad_checkv+0x72>
     728:	47 9a       	sbi	0x08, 7	; 8
     72a:	8f e1       	ldi	r24, 0x1F	; 31
     72c:	9e e4       	ldi	r25, 0x4E	; 78
     72e:	01 97       	sbiw	r24, 0x01	; 1
     730:	f1 f7       	brne	.-4      	; 0x72e <_Z12keypad_checkv+0x170>
     732:	00 c0       	rjmp	.+0      	; 0x734 <_Z12keypad_checkv+0x176>
     734:	00 00       	nop
     736:	8a e0       	ldi	r24, 0x0A	; 10
     738:	90 e0       	ldi	r25, 0x00	; 0
     73a:	90 93 0b 02 	sts	0x020B, r25
     73e:	80 93 0a 02 	sts	0x020A, r24
     742:	2a e0       	ldi	r18, 0x0A	; 10
     744:	30 e0       	ldi	r19, 0x00	; 0
     746:	a5 cf       	rjmp	.-182    	; 0x692 <_Z12keypad_checkv+0xd4>

00000748 <_Z10get_statusv>:
     748:	41 98       	cbi	0x08, 1	; 8
     74a:	43 98       	cbi	0x08, 3	; 8
     74c:	45 98       	cbi	0x08, 5	; 8
     74e:	47 98       	cbi	0x08, 7	; 8
     750:	06 9b       	sbis	0x00, 6	; 0
     752:	0b c0       	rjmp	.+22     	; 0x76a <_Z10get_statusv+0x22>
     754:	04 9b       	sbis	0x00, 4	; 0
     756:	0c c0       	rjmp	.+24     	; 0x770 <_Z10get_statusv+0x28>
     758:	02 9b       	sbis	0x00, 2	; 0
     75a:	0d c0       	rjmp	.+26     	; 0x776 <_Z10get_statusv+0x2e>
     75c:	90 b1       	in	r25, 0x00	; 0
     75e:	81 e0       	ldi	r24, 0x01	; 1
     760:	89 27       	eor	r24, r25
     762:	28 2f       	mov	r18, r24
     764:	21 70       	andi	r18, 0x01	; 1
     766:	30 e0       	ldi	r19, 0x00	; 0
     768:	08 c0       	rjmp	.+16     	; 0x77a <_Z10get_statusv+0x32>
     76a:	21 e0       	ldi	r18, 0x01	; 1
     76c:	30 e0       	ldi	r19, 0x00	; 0
     76e:	05 c0       	rjmp	.+10     	; 0x77a <_Z10get_statusv+0x32>
     770:	21 e0       	ldi	r18, 0x01	; 1
     772:	30 e0       	ldi	r19, 0x00	; 0
     774:	02 c0       	rjmp	.+4      	; 0x77a <_Z10get_statusv+0x32>
     776:	21 e0       	ldi	r18, 0x01	; 1
     778:	30 e0       	ldi	r19, 0x00	; 0
     77a:	82 2f       	mov	r24, r18
     77c:	93 2f       	mov	r25, r19
     77e:	08 95       	ret

00000780 <_Z7get_keyv>:
     780:	e3 df       	rcall	.-58     	; 0x748 <_Z10get_statusv>
     782:	01 97       	sbiw	r24, 0x01	; 1
     784:	51 f4       	brne	.+20     	; 0x79a <_Z7get_keyv+0x1a>
     786:	20 91 0a 02 	lds	r18, 0x020A
     78a:	30 91 0b 02 	lds	r19, 0x020B
     78e:	2a 30       	cpi	r18, 0x0A	; 10
     790:	31 05       	cpc	r19, r1
     792:	19 f0       	breq	.+6      	; 0x79a <_Z7get_keyv+0x1a>
     794:	82 2f       	mov	r24, r18
     796:	93 2f       	mov	r25, r19
     798:	08 95       	ret
     79a:	11 df       	rcall	.-478    	; 0x5be <_Z12keypad_checkv>
     79c:	9c 01       	movw	r18, r24
     79e:	90 93 0b 02 	sts	0x020B, r25
     7a2:	80 93 0a 02 	sts	0x020A, r24
     7a6:	f6 cf       	rjmp	.-20     	; 0x794 <_Z7get_keyv+0x14>

000007a8 <_Z6setADCv>:
     7a8:	ea e7       	ldi	r30, 0x7A	; 122
     7aa:	f0 e0       	ldi	r31, 0x00	; 0
     7ac:	80 81       	ld	r24, Z
     7ae:	80 68       	ori	r24, 0x80	; 128
     7b0:	80 83       	st	Z, r24
     7b2:	ac e7       	ldi	r26, 0x7C	; 124
     7b4:	b0 e0       	ldi	r27, 0x00	; 0
     7b6:	8c 91       	ld	r24, X
     7b8:	80 64       	ori	r24, 0x40	; 64
     7ba:	8c 93       	st	X, r24
     7bc:	8c 91       	ld	r24, X
     7be:	80 7e       	andi	r24, 0xE0	; 224
     7c0:	8c 93       	st	X, r24
     7c2:	80 81       	ld	r24, Z
     7c4:	86 60       	ori	r24, 0x06	; 6
     7c6:	80 83       	st	Z, r24
     7c8:	80 81       	ld	r24, Z
     7ca:	81 60       	ori	r24, 0x01	; 1
     7cc:	80 83       	st	Z, r24
     7ce:	80 81       	ld	r24, Z
     7d0:	80 64       	ori	r24, 0x40	; 64
     7d2:	80 83       	st	Z, r24
     7d4:	80 81       	ld	r24, Z
     7d6:	86 fd       	sbrc	r24, 6
     7d8:	fd cf       	rjmp	.-6      	; 0x7d4 <_Z6setADCv+0x2c>
     7da:	ea e7       	ldi	r30, 0x7A	; 122
     7dc:	f0 e0       	ldi	r31, 0x00	; 0
     7de:	80 81       	ld	r24, Z
     7e0:	8f 77       	andi	r24, 0x7F	; 127
     7e2:	80 83       	st	Z, r24
     7e4:	08 95       	ret

000007e6 <_Z8adc_readh>:
     7e6:	ec e7       	ldi	r30, 0x7C	; 124
     7e8:	f0 e0       	ldi	r31, 0x00	; 0
     7ea:	90 81       	ld	r25, Z
     7ec:	87 70       	andi	r24, 0x07	; 7
     7ee:	98 7f       	andi	r25, 0xF8	; 248
     7f0:	98 2b       	or	r25, r24
     7f2:	90 83       	st	Z, r25
     7f4:	ea e7       	ldi	r30, 0x7A	; 122
     7f6:	f0 e0       	ldi	r31, 0x00	; 0
     7f8:	80 81       	ld	r24, Z
     7fa:	80 6c       	ori	r24, 0xC0	; 192
     7fc:	80 83       	st	Z, r24
     7fe:	80 81       	ld	r24, Z
     800:	86 fd       	sbrc	r24, 6
     802:	fd cf       	rjmp	.-6      	; 0x7fe <_Z8adc_readh+0x18>
     804:	20 91 78 00 	lds	r18, 0x0078
     808:	30 91 79 00 	lds	r19, 0x0079
     80c:	82 2f       	mov	r24, r18
     80e:	93 2f       	mov	r25, r19
     810:	08 95       	ret

00000812 <_Z12init_devicesv>:
    }
}

void init_devices() {
	
	setADC();
     812:	ca df       	rcall	.-108    	; 0x7a8 <_Z6setADCv>
	keypad_init();
     814:	c4 de       	rcall	.-632    	; 0x59e <_Z11keypad_initv>
	lcd_init();
     816:	58 dd       	rcall	.-1360   	; 0x2c8 <_Z8lcd_initv>
	lcd_clear();
     818:	1d dd       	rcall	.-1478   	; 0x254 <_Z9lcd_clearv>
	leds.led_init();
     81a:	8b eb       	ldi	r24, 0xBB	; 187
     81c:	92 e0       	ldi	r25, 0x02	; 2
     81e:	0e 94 b8 0c 	call	0x1970	; 0x1970 <_ZN3led8led_initEv>
	
	phototherapy.init_phototherapy(4000);
     822:	60 ea       	ldi	r22, 0xA0	; 160
     824:	7f e0       	ldi	r23, 0x0F	; 15
     826:	8c eb       	ldi	r24, 0xBC	; 188
     828:	92 e0       	ldi	r25, 0x02	; 2
     82a:	0e 94 65 0d 	call	0x1aca	; 0x1aca <_ZN12PhotoTherapy17init_phototherapyEi>
	
	controls.initControls();
     82e:	8a eb       	ldi	r24, 0xBA	; 186
     830:	92 e0       	ldi	r25, 0x02	; 2
     832:	8b dc       	rcall	.-1770   	; 0x14a <_ZN8Controls12initControlsEv>
	
	timerr.setTimerNum(5);
     834:	65 e0       	ldi	r22, 0x05	; 5
     836:	70 e0       	ldi	r23, 0x00	; 0
     838:	80 ec       	ldi	r24, 0xC0	; 192
     83a:	92 e0       	ldi	r25, 0x02	; 2
     83c:	0e 94 cd 0d 	call	0x1b9a	; 0x1b9a <_ZN6Timerr11setTimerNumEi>
	timerr.setCompareInterrupt();
     840:	80 ec       	ldi	r24, 0xC0	; 192
     842:	92 e0       	ldi	r25, 0x02	; 2
     844:	0e 94 f9 0d 	call	0x1bf2	; 0x1bf2 <_ZN6Timerr19setCompareInterruptEv>
	
	//tempTimer.setTimerNum(5);
	timerHeater.setTimerNum(3);
     848:	63 e0       	ldi	r22, 0x03	; 3
     84a:	70 e0       	ldi	r23, 0x00	; 0
     84c:	8e eb       	ldi	r24, 0xBE	; 190
     84e:	92 e0       	ldi	r25, 0x02	; 2
     850:	0e 94 cd 0d 	call	0x1b9a	; 0x1b9a <_ZN6Timerr11setTimerNumEi>
	timerHeater.setCompareInterrupt();
     854:	8e eb       	ldi	r24, 0xBE	; 190
     856:	92 e0       	ldi	r25, 0x02	; 2
     858:	0c 94 f9 0d 	jmp	0x1bf2	; 0x1bf2 <_ZN6Timerr19setCompareInterruptEv>

0000085c <_Z7displayv>:
	//Printf(5,"%fC",skin_temp);
	//lcd_gotoxy(3,1);
	//Printf(5,"%f%",humidity);
	//lcd_gotoxy(10,1);
	//Printf(5, "T:%f", temperature);
	if(hour == 0 && minute == 0 && second == 0) {
     85c:	80 91 fb 02 	lds	r24, 0x02FB
     860:	90 91 fc 02 	lds	r25, 0x02FC
     864:	89 2b       	or	r24, r25
     866:	09 f0       	breq	.+2      	; 0x86a <_Z7displayv+0xe>
     868:	dd c0       	rjmp	.+442    	; 0xa24 <_Z7displayv+0x1c8>
     86a:	80 91 06 02 	lds	r24, 0x0206
     86e:	90 91 07 02 	lds	r25, 0x0207
     872:	89 2b       	or	r24, r25
     874:	09 f0       	breq	.+2      	; 0x878 <_Z7displayv+0x1c>
     876:	d6 c0       	rjmp	.+428    	; 0xa24 <_Z7displayv+0x1c8>
     878:	80 91 08 02 	lds	r24, 0x0208
     87c:	90 91 09 02 	lds	r25, 0x0209
     880:	89 2b       	or	r24, r25
     882:	09 f4       	brne	.+2      	; 0x886 <_Z7displayv+0x2a>
     884:	c4 c0       	rjmp	.+392    	; 0xa0e <_Z7displayv+0x1b2>
     886:	ce c0       	rjmp	.+412    	; 0xa24 <_Z7displayv+0x1c8>
		Printf(3,"00:00:00");
	} else if(hour < 10 && minute < 10 && second < 10) {
     888:	80 91 06 02 	lds	r24, 0x0206
     88c:	90 91 07 02 	lds	r25, 0x0207
     890:	0a 97       	sbiw	r24, 0x0a	; 10
     892:	0c f0       	brlt	.+2      	; 0x896 <_Z7displayv+0x3a>
     894:	ce c0       	rjmp	.+412    	; 0xa32 <_Z7displayv+0x1d6>
     896:	80 91 08 02 	lds	r24, 0x0208
     89a:	90 91 09 02 	lds	r25, 0x0209
     89e:	0a 97       	sbiw	r24, 0x0a	; 10
     8a0:	0c f4       	brge	.+2      	; 0x8a4 <_Z7displayv+0x48>
     8a2:	cf c0       	rjmp	.+414    	; 0xa42 <_Z7displayv+0x1e6>
     8a4:	c6 c0       	rjmp	.+396    	; 0xa32 <_Z7displayv+0x1d6>
		Printf(3,"0%d:0%d:0%d",hour, minute, second);
	} else if(hour < 10 && minute < 10) {
     8a6:	80 91 06 02 	lds	r24, 0x0206
     8aa:	90 91 07 02 	lds	r25, 0x0207
     8ae:	0a 97       	sbiw	r24, 0x0a	; 10
     8b0:	0c f4       	brge	.+2      	; 0x8b4 <_Z7displayv+0x58>
     8b2:	e9 c0       	rjmp	.+466    	; 0xa86 <_Z7displayv+0x22a>
     8b4:	0a c1       	rjmp	.+532    	; 0xaca <_Z7displayv+0x26e>
		Printf(3,"0%d:0%d:%d",hour, minute, second);
	} else if(hour < 10 && second < 10) {
     8b6:	80 91 08 02 	lds	r24, 0x0208
     8ba:	90 91 09 02 	lds	r25, 0x0209
     8be:	0a 97       	sbiw	r24, 0x0a	; 10
     8c0:	0c f4       	brge	.+2      	; 0x8c4 <_Z7displayv+0x68>
     8c2:	0b c1       	rjmp	.+534    	; 0xada <_Z7displayv+0x27e>
     8c4:	2c c1       	rjmp	.+600    	; 0xb1e <_Z7displayv+0x2c2>
		Printf(3,"0%d:%d:0%d",hour, minute, second);
	} else if(minute < 10 && second < 10) {
     8c6:	80 91 08 02 	lds	r24, 0x0208
     8ca:	90 91 09 02 	lds	r25, 0x0209
     8ce:	0a 97       	sbiw	r24, 0x0a	; 10
     8d0:	0c f4       	brge	.+2      	; 0x8d4 <_Z7displayv+0x78>
     8d2:	2d c1       	rjmp	.+602    	; 0xb2e <_Z7displayv+0x2d2>
     8d4:	4e c1       	rjmp	.+668    	; 0xb72 <_Z7displayv+0x316>
		Printf(3,"%d:0%d:0%d",hour, minute, second);
	} else if(minute < 10) {
		Printf(3,"%d:0%d:%d",hour, minute, second);
     8d6:	40 91 08 02 	lds	r20, 0x0208
     8da:	50 91 09 02 	lds	r21, 0x0209
     8de:	20 91 06 02 	lds	r18, 0x0206
     8e2:	30 91 07 02 	lds	r19, 0x0207
     8e6:	80 91 fb 02 	lds	r24, 0x02FB
     8ea:	90 91 fc 02 	lds	r25, 0x02FC
     8ee:	5f 93       	push	r21
     8f0:	4f 93       	push	r20
     8f2:	3f 93       	push	r19
     8f4:	2f 93       	push	r18
     8f6:	9f 93       	push	r25
     8f8:	8f 93       	push	r24
     8fa:	8c e2       	ldi	r24, 0x2C	; 44
     8fc:	92 e0       	ldi	r25, 0x02	; 2
     8fe:	9f 93       	push	r25
     900:	8f 93       	push	r24
     902:	83 e0       	ldi	r24, 0x03	; 3
     904:	8f 93       	push	r24
     906:	57 dd       	rcall	.-1362   	; 0x3b6 <_Z6PrintfhPcz>
     908:	8d b7       	in	r24, 0x3d	; 61
     90a:	9e b7       	in	r25, 0x3e	; 62
     90c:	09 96       	adiw	r24, 0x09	; 9
     90e:	0f b6       	in	r0, 0x3f	; 63
     910:	f8 94       	cli
     912:	9e bf       	out	0x3e, r25	; 62
     914:	0f be       	out	0x3f, r0	; 63
     916:	8d bf       	out	0x3d, r24	; 61
     918:	71 c0       	rjmp	.+226    	; 0x9fc <_Z7displayv+0x1a0>
	} else if(second < 10) {
     91a:	80 91 08 02 	lds	r24, 0x0208
     91e:	90 91 09 02 	lds	r25, 0x0209
     922:	0a 97       	sbiw	r24, 0x0a	; 10
     924:	14 f5       	brge	.+68     	; 0x96a <_Z7displayv+0x10e>
		Printf(3,"%d:%d:0%d",hour, minute, second);
     926:	40 91 08 02 	lds	r20, 0x0208
     92a:	50 91 09 02 	lds	r21, 0x0209
     92e:	20 91 06 02 	lds	r18, 0x0206
     932:	30 91 07 02 	lds	r19, 0x0207
     936:	80 91 fb 02 	lds	r24, 0x02FB
     93a:	90 91 fc 02 	lds	r25, 0x02FC
     93e:	5f 93       	push	r21
     940:	4f 93       	push	r20
     942:	3f 93       	push	r19
     944:	2f 93       	push	r18
     946:	9f 93       	push	r25
     948:	8f 93       	push	r24
     94a:	87 e3       	ldi	r24, 0x37	; 55
     94c:	92 e0       	ldi	r25, 0x02	; 2
     94e:	9f 93       	push	r25
     950:	8f 93       	push	r24
     952:	83 e0       	ldi	r24, 0x03	; 3
     954:	8f 93       	push	r24
     956:	2f dd       	rcall	.-1442   	; 0x3b6 <_Z6PrintfhPcz>
     958:	8d b7       	in	r24, 0x3d	; 61
     95a:	9e b7       	in	r25, 0x3e	; 62
     95c:	09 96       	adiw	r24, 0x09	; 9
     95e:	0f b6       	in	r0, 0x3f	; 63
     960:	f8 94       	cli
     962:	9e bf       	out	0x3e, r25	; 62
     964:	0f be       	out	0x3f, r0	; 63
     966:	8d bf       	out	0x3d, r24	; 61
     968:	49 c0       	rjmp	.+146    	; 0x9fc <_Z7displayv+0x1a0>
	} else if(hour < 10) {
     96a:	80 91 fb 02 	lds	r24, 0x02FB
     96e:	90 91 fc 02 	lds	r25, 0x02FC
     972:	0a 97       	sbiw	r24, 0x0a	; 10
     974:	14 f5       	brge	.+68     	; 0x9ba <_Z7displayv+0x15e>
		Printf(3,"0%d:%d:%d",hour, minute, second);
     976:	40 91 08 02 	lds	r20, 0x0208
     97a:	50 91 09 02 	lds	r21, 0x0209
     97e:	20 91 06 02 	lds	r18, 0x0206
     982:	30 91 07 02 	lds	r19, 0x0207
     986:	80 91 fb 02 	lds	r24, 0x02FB
     98a:	90 91 fc 02 	lds	r25, 0x02FC
     98e:	5f 93       	push	r21
     990:	4f 93       	push	r20
     992:	3f 93       	push	r19
     994:	2f 93       	push	r18
     996:	9f 93       	push	r25
     998:	8f 93       	push	r24
     99a:	8c e0       	ldi	r24, 0x0C	; 12
     99c:	92 e0       	ldi	r25, 0x02	; 2
     99e:	9f 93       	push	r25
     9a0:	8f 93       	push	r24
     9a2:	83 e0       	ldi	r24, 0x03	; 3
     9a4:	8f 93       	push	r24
     9a6:	07 dd       	rcall	.-1522   	; 0x3b6 <_Z6PrintfhPcz>
     9a8:	8d b7       	in	r24, 0x3d	; 61
     9aa:	9e b7       	in	r25, 0x3e	; 62
     9ac:	09 96       	adiw	r24, 0x09	; 9
     9ae:	0f b6       	in	r0, 0x3f	; 63
     9b0:	f8 94       	cli
     9b2:	9e bf       	out	0x3e, r25	; 62
     9b4:	0f be       	out	0x3f, r0	; 63
     9b6:	8d bf       	out	0x3d, r24	; 61
     9b8:	21 c0       	rjmp	.+66     	; 0x9fc <_Z7displayv+0x1a0>
	}else {
		Printf(3,"%d:%d:%d",hour, minute, second);
     9ba:	40 91 08 02 	lds	r20, 0x0208
     9be:	50 91 09 02 	lds	r21, 0x0209
     9c2:	20 91 06 02 	lds	r18, 0x0206
     9c6:	30 91 07 02 	lds	r19, 0x0207
     9ca:	80 91 fb 02 	lds	r24, 0x02FB
     9ce:	90 91 fc 02 	lds	r25, 0x02FC
     9d2:	5f 93       	push	r21
     9d4:	4f 93       	push	r20
     9d6:	3f 93       	push	r19
     9d8:	2f 93       	push	r18
     9da:	9f 93       	push	r25
     9dc:	8f 93       	push	r24
     9de:	8d e0       	ldi	r24, 0x0D	; 13
     9e0:	92 e0       	ldi	r25, 0x02	; 2
     9e2:	9f 93       	push	r25
     9e4:	8f 93       	push	r24
     9e6:	83 e0       	ldi	r24, 0x03	; 3
     9e8:	8f 93       	push	r24
     9ea:	e5 dc       	rcall	.-1590   	; 0x3b6 <_Z6PrintfhPcz>
     9ec:	8d b7       	in	r24, 0x3d	; 61
     9ee:	9e b7       	in	r25, 0x3e	; 62
     9f0:	09 96       	adiw	r24, 0x09	; 9
     9f2:	0f b6       	in	r0, 0x3f	; 63
     9f4:	f8 94       	cli
     9f6:	9e bf       	out	0x3e, r25	; 62
     9f8:	0f be       	out	0x3f, r0	; 63
     9fa:	8d bf       	out	0x3d, r24	; 61
	}
	
	if(timer_set) {
     9fc:	80 91 ea 02 	lds	r24, 0x02EA
     a00:	88 23       	and	r24, r24
     a02:	09 f4       	brne	.+2      	; 0xa06 <_Z7displayv+0x1aa>
     a04:	be c0       	rjmp	.+380    	; 0xb82 <_Z7displayv+0x326>
		lcd_gotoxy(lcd_pos,4);
     a06:	64 e0       	ldi	r22, 0x04	; 4
     a08:	80 91 eb 02 	lds	r24, 0x02EB
     a0c:	4a cc       	rjmp	.-1900   	; 0x2a2 <_Z10lcd_gotoxyhh>
	//lcd_gotoxy(3,1);
	//Printf(5,"%f%",humidity);
	//lcd_gotoxy(10,1);
	//Printf(5, "T:%f", temperature);
	if(hour == 0 && minute == 0 && second == 0) {
		Printf(3,"00:00:00");
     a0e:	86 e1       	ldi	r24, 0x16	; 22
     a10:	92 e0       	ldi	r25, 0x02	; 2
     a12:	9f 93       	push	r25
     a14:	8f 93       	push	r24
     a16:	83 e0       	ldi	r24, 0x03	; 3
     a18:	8f 93       	push	r24
     a1a:	cd dc       	rcall	.-1638   	; 0x3b6 <_Z6PrintfhPcz>
     a1c:	0f 90       	pop	r0
     a1e:	0f 90       	pop	r0
     a20:	0f 90       	pop	r0
     a22:	ec cf       	rjmp	.-40     	; 0x9fc <_Z7displayv+0x1a0>
	} else if(hour < 10 && minute < 10 && second < 10) {
     a24:	80 91 fb 02 	lds	r24, 0x02FB
     a28:	90 91 fc 02 	lds	r25, 0x02FC
     a2c:	0a 97       	sbiw	r24, 0x0a	; 10
     a2e:	0c f4       	brge	.+2      	; 0xa32 <_Z7displayv+0x1d6>
     a30:	2b cf       	rjmp	.-426    	; 0x888 <_Z7displayv+0x2c>
		Printf(3,"0%d:0%d:0%d",hour, minute, second);
	} else if(hour < 10 && minute < 10) {
     a32:	80 91 fb 02 	lds	r24, 0x02FB
     a36:	90 91 fc 02 	lds	r25, 0x02FC
     a3a:	0a 97       	sbiw	r24, 0x0a	; 10
     a3c:	0c f4       	brge	.+2      	; 0xa40 <_Z7displayv+0x1e4>
     a3e:	33 cf       	rjmp	.-410    	; 0x8a6 <_Z7displayv+0x4a>
     a40:	44 c0       	rjmp	.+136    	; 0xaca <_Z7displayv+0x26e>
	//lcd_gotoxy(10,1);
	//Printf(5, "T:%f", temperature);
	if(hour == 0 && minute == 0 && second == 0) {
		Printf(3,"00:00:00");
	} else if(hour < 10 && minute < 10 && second < 10) {
		Printf(3,"0%d:0%d:0%d",hour, minute, second);
     a42:	40 91 08 02 	lds	r20, 0x0208
     a46:	50 91 09 02 	lds	r21, 0x0209
     a4a:	20 91 06 02 	lds	r18, 0x0206
     a4e:	30 91 07 02 	lds	r19, 0x0207
     a52:	80 91 fb 02 	lds	r24, 0x02FB
     a56:	90 91 fc 02 	lds	r25, 0x02FC
     a5a:	5f 93       	push	r21
     a5c:	4f 93       	push	r20
     a5e:	3f 93       	push	r19
     a60:	2f 93       	push	r18
     a62:	9f 93       	push	r25
     a64:	8f 93       	push	r24
     a66:	8f e1       	ldi	r24, 0x1F	; 31
     a68:	92 e0       	ldi	r25, 0x02	; 2
     a6a:	9f 93       	push	r25
     a6c:	8f 93       	push	r24
     a6e:	83 e0       	ldi	r24, 0x03	; 3
     a70:	8f 93       	push	r24
     a72:	a1 dc       	rcall	.-1726   	; 0x3b6 <_Z6PrintfhPcz>
     a74:	8d b7       	in	r24, 0x3d	; 61
     a76:	9e b7       	in	r25, 0x3e	; 62
     a78:	09 96       	adiw	r24, 0x09	; 9
     a7a:	0f b6       	in	r0, 0x3f	; 63
     a7c:	f8 94       	cli
     a7e:	9e bf       	out	0x3e, r25	; 62
     a80:	0f be       	out	0x3f, r0	; 63
     a82:	8d bf       	out	0x3d, r24	; 61
     a84:	bb cf       	rjmp	.-138    	; 0x9fc <_Z7displayv+0x1a0>
	} else if(hour < 10 && minute < 10) {
		Printf(3,"0%d:0%d:%d",hour, minute, second);
     a86:	40 91 08 02 	lds	r20, 0x0208
     a8a:	50 91 09 02 	lds	r21, 0x0209
     a8e:	20 91 06 02 	lds	r18, 0x0206
     a92:	30 91 07 02 	lds	r19, 0x0207
     a96:	80 91 fb 02 	lds	r24, 0x02FB
     a9a:	90 91 fc 02 	lds	r25, 0x02FC
     a9e:	5f 93       	push	r21
     aa0:	4f 93       	push	r20
     aa2:	3f 93       	push	r19
     aa4:	2f 93       	push	r18
     aa6:	9f 93       	push	r25
     aa8:	8f 93       	push	r24
     aaa:	8b e2       	ldi	r24, 0x2B	; 43
     aac:	92 e0       	ldi	r25, 0x02	; 2
     aae:	9f 93       	push	r25
     ab0:	8f 93       	push	r24
     ab2:	83 e0       	ldi	r24, 0x03	; 3
     ab4:	8f 93       	push	r24
     ab6:	7f dc       	rcall	.-1794   	; 0x3b6 <_Z6PrintfhPcz>
     ab8:	8d b7       	in	r24, 0x3d	; 61
     aba:	9e b7       	in	r25, 0x3e	; 62
     abc:	09 96       	adiw	r24, 0x09	; 9
     abe:	0f b6       	in	r0, 0x3f	; 63
     ac0:	f8 94       	cli
     ac2:	9e bf       	out	0x3e, r25	; 62
     ac4:	0f be       	out	0x3f, r0	; 63
     ac6:	8d bf       	out	0x3d, r24	; 61
     ac8:	99 cf       	rjmp	.-206    	; 0x9fc <_Z7displayv+0x1a0>
	} else if(hour < 10 && second < 10) {
     aca:	80 91 fb 02 	lds	r24, 0x02FB
     ace:	90 91 fc 02 	lds	r25, 0x02FC
     ad2:	0a 97       	sbiw	r24, 0x0a	; 10
     ad4:	0c f4       	brge	.+2      	; 0xad8 <_Z7displayv+0x27c>
     ad6:	ef ce       	rjmp	.-546    	; 0x8b6 <_Z7displayv+0x5a>
     ad8:	22 c0       	rjmp	.+68     	; 0xb1e <_Z7displayv+0x2c2>
		Printf(3,"0%d:%d:0%d",hour, minute, second);
     ada:	40 91 08 02 	lds	r20, 0x0208
     ade:	50 91 09 02 	lds	r21, 0x0209
     ae2:	20 91 06 02 	lds	r18, 0x0206
     ae6:	30 91 07 02 	lds	r19, 0x0207
     aea:	80 91 fb 02 	lds	r24, 0x02FB
     aee:	90 91 fc 02 	lds	r25, 0x02FC
     af2:	5f 93       	push	r21
     af4:	4f 93       	push	r20
     af6:	3f 93       	push	r19
     af8:	2f 93       	push	r18
     afa:	9f 93       	push	r25
     afc:	8f 93       	push	r24
     afe:	86 e3       	ldi	r24, 0x36	; 54
     b00:	92 e0       	ldi	r25, 0x02	; 2
     b02:	9f 93       	push	r25
     b04:	8f 93       	push	r24
     b06:	83 e0       	ldi	r24, 0x03	; 3
     b08:	8f 93       	push	r24
     b0a:	55 dc       	rcall	.-1878   	; 0x3b6 <_Z6PrintfhPcz>
     b0c:	8d b7       	in	r24, 0x3d	; 61
     b0e:	9e b7       	in	r25, 0x3e	; 62
     b10:	09 96       	adiw	r24, 0x09	; 9
     b12:	0f b6       	in	r0, 0x3f	; 63
     b14:	f8 94       	cli
     b16:	9e bf       	out	0x3e, r25	; 62
     b18:	0f be       	out	0x3f, r0	; 63
     b1a:	8d bf       	out	0x3d, r24	; 61
     b1c:	6f cf       	rjmp	.-290    	; 0x9fc <_Z7displayv+0x1a0>
	} else if(minute < 10 && second < 10) {
     b1e:	80 91 06 02 	lds	r24, 0x0206
     b22:	90 91 07 02 	lds	r25, 0x0207
     b26:	0a 97       	sbiw	r24, 0x0a	; 10
     b28:	0c f4       	brge	.+2      	; 0xb2c <_Z7displayv+0x2d0>
     b2a:	cd ce       	rjmp	.-614    	; 0x8c6 <_Z7displayv+0x6a>
     b2c:	22 c0       	rjmp	.+68     	; 0xb72 <_Z7displayv+0x316>
		Printf(3,"%d:0%d:0%d",hour, minute, second);
     b2e:	40 91 08 02 	lds	r20, 0x0208
     b32:	50 91 09 02 	lds	r21, 0x0209
     b36:	20 91 06 02 	lds	r18, 0x0206
     b3a:	30 91 07 02 	lds	r19, 0x0207
     b3e:	80 91 fb 02 	lds	r24, 0x02FB
     b42:	90 91 fc 02 	lds	r25, 0x02FC
     b46:	5f 93       	push	r21
     b48:	4f 93       	push	r20
     b4a:	3f 93       	push	r19
     b4c:	2f 93       	push	r18
     b4e:	9f 93       	push	r25
     b50:	8f 93       	push	r24
     b52:	80 e2       	ldi	r24, 0x20	; 32
     b54:	92 e0       	ldi	r25, 0x02	; 2
     b56:	9f 93       	push	r25
     b58:	8f 93       	push	r24
     b5a:	83 e0       	ldi	r24, 0x03	; 3
     b5c:	8f 93       	push	r24
     b5e:	2b dc       	rcall	.-1962   	; 0x3b6 <_Z6PrintfhPcz>
     b60:	8d b7       	in	r24, 0x3d	; 61
     b62:	9e b7       	in	r25, 0x3e	; 62
     b64:	09 96       	adiw	r24, 0x09	; 9
     b66:	0f b6       	in	r0, 0x3f	; 63
     b68:	f8 94       	cli
     b6a:	9e bf       	out	0x3e, r25	; 62
     b6c:	0f be       	out	0x3f, r0	; 63
     b6e:	8d bf       	out	0x3d, r24	; 61
     b70:	45 cf       	rjmp	.-374    	; 0x9fc <_Z7displayv+0x1a0>
	} else if(minute < 10) {
     b72:	80 91 06 02 	lds	r24, 0x0206
     b76:	90 91 07 02 	lds	r25, 0x0207
     b7a:	0a 97       	sbiw	r24, 0x0a	; 10
     b7c:	0c f0       	brlt	.+2      	; 0xb80 <_Z7displayv+0x324>
     b7e:	cd ce       	rjmp	.-614    	; 0x91a <_Z7displayv+0xbe>
     b80:	aa ce       	rjmp	.-684    	; 0x8d6 <_Z7displayv+0x7a>
     b82:	08 95       	ret

00000b84 <_Z3seti>:
		lcd_gotoxy(lcd_pos,4);
	}
}

void set(int key) {
	time[count] = key;
     b84:	20 91 ed 02 	lds	r18, 0x02ED
     b88:	30 91 ee 02 	lds	r19, 0x02EE
     b8c:	ef ee       	ldi	r30, 0xEF	; 239
     b8e:	f2 e0       	ldi	r31, 0x02	; 2
     b90:	d9 01       	movw	r26, r18
     b92:	aa 0f       	add	r26, r26
     b94:	bb 1f       	adc	r27, r27
     b96:	ae 0f       	add	r26, r30
     b98:	bf 1f       	adc	r27, r31
     b9a:	8d 93       	st	X+, r24
     b9c:	9c 93       	st	X, r25
	count++;
     b9e:	2f 5f       	subi	r18, 0xFF	; 255
     ba0:	3f 4f       	sbci	r19, 0xFF	; 255
     ba2:	30 93 ee 02 	sts	0x02EE, r19
     ba6:	20 93 ed 02 	sts	0x02ED, r18
	hour = hour = time[0] * 10 + time[1];
     baa:	80 81       	ld	r24, Z
     bac:	91 81       	ldd	r25, Z+1	; 0x01
     bae:	88 0f       	add	r24, r24
     bb0:	99 1f       	adc	r25, r25
     bb2:	9c 01       	movw	r18, r24
     bb4:	22 0f       	add	r18, r18
     bb6:	33 1f       	adc	r19, r19
     bb8:	22 0f       	add	r18, r18
     bba:	33 1f       	adc	r19, r19
     bbc:	82 0f       	add	r24, r18
     bbe:	93 1f       	adc	r25, r19
     bc0:	20 91 f1 02 	lds	r18, 0x02F1
     bc4:	30 91 f2 02 	lds	r19, 0x02F2
     bc8:	82 0f       	add	r24, r18
     bca:	93 1f       	adc	r25, r19
     bcc:	90 93 fc 02 	sts	0x02FC, r25
     bd0:	80 93 fb 02 	sts	0x02FB, r24
     bd4:	90 93 fc 02 	sts	0x02FC, r25
     bd8:	80 93 fb 02 	sts	0x02FB, r24
	if(hour < 0 || hour > 23) {
     bdc:	80 91 fb 02 	lds	r24, 0x02FB
     be0:	90 91 fc 02 	lds	r25, 0x02FC
     be4:	99 23       	and	r25, r25
     be6:	34 f0       	brlt	.+12     	; 0xbf4 <_Z3seti+0x70>
     be8:	80 91 fb 02 	lds	r24, 0x02FB
     bec:	90 91 fc 02 	lds	r25, 0x02FC
     bf0:	48 97       	sbiw	r24, 0x18	; 24
     bf2:	54 f0       	brlt	.+20     	; 0xc08 <_Z3seti+0x84>
		count = 0;
     bf4:	10 92 ee 02 	sts	0x02EE, r1
     bf8:	10 92 ed 02 	sts	0x02ED, r1
		lcd_pos = -1;
     bfc:	8f ef       	ldi	r24, 0xFF	; 255
     bfe:	9f ef       	ldi	r25, 0xFF	; 255
     c00:	90 93 ec 02 	sts	0x02EC, r25
     c04:	80 93 eb 02 	sts	0x02EB, r24
	}
	minute = time[2] * 10 + time[3];
     c08:	e3 ef       	ldi	r30, 0xF3	; 243
     c0a:	f2 e0       	ldi	r31, 0x02	; 2
     c0c:	80 81       	ld	r24, Z
     c0e:	91 81       	ldd	r25, Z+1	; 0x01
     c10:	88 0f       	add	r24, r24
     c12:	99 1f       	adc	r25, r25
     c14:	9c 01       	movw	r18, r24
     c16:	22 0f       	add	r18, r18
     c18:	33 1f       	adc	r19, r19
     c1a:	22 0f       	add	r18, r18
     c1c:	33 1f       	adc	r19, r19
     c1e:	82 0f       	add	r24, r18
     c20:	93 1f       	adc	r25, r19
     c22:	20 91 f5 02 	lds	r18, 0x02F5
     c26:	30 91 f6 02 	lds	r19, 0x02F6
     c2a:	82 0f       	add	r24, r18
     c2c:	93 1f       	adc	r25, r19
     c2e:	90 93 07 02 	sts	0x0207, r25
     c32:	80 93 06 02 	sts	0x0206, r24
	if(minute > 59 || minute < 0) {
     c36:	80 91 06 02 	lds	r24, 0x0206
     c3a:	90 91 07 02 	lds	r25, 0x0207
     c3e:	cc 97       	sbiw	r24, 0x3c	; 60
     c40:	34 f4       	brge	.+12     	; 0xc4e <_Z3seti+0xca>
     c42:	80 91 06 02 	lds	r24, 0x0206
     c46:	90 91 07 02 	lds	r25, 0x0207
     c4a:	99 23       	and	r25, r25
     c4c:	34 f4       	brge	.+12     	; 0xc5a <_Z3seti+0xd6>
		count = 2;
     c4e:	82 e0       	ldi	r24, 0x02	; 2
     c50:	90 e0       	ldi	r25, 0x00	; 0
     c52:	90 93 ee 02 	sts	0x02EE, r25
     c56:	80 93 ed 02 	sts	0x02ED, r24
	}
	second = time[4] * 10 + time[5];
     c5a:	e7 ef       	ldi	r30, 0xF7	; 247
     c5c:	f2 e0       	ldi	r31, 0x02	; 2
     c5e:	80 81       	ld	r24, Z
     c60:	91 81       	ldd	r25, Z+1	; 0x01
     c62:	88 0f       	add	r24, r24
     c64:	99 1f       	adc	r25, r25
     c66:	9c 01       	movw	r18, r24
     c68:	22 0f       	add	r18, r18
     c6a:	33 1f       	adc	r19, r19
     c6c:	22 0f       	add	r18, r18
     c6e:	33 1f       	adc	r19, r19
     c70:	82 0f       	add	r24, r18
     c72:	93 1f       	adc	r25, r19
     c74:	20 91 f9 02 	lds	r18, 0x02F9
     c78:	30 91 fa 02 	lds	r19, 0x02FA
     c7c:	82 0f       	add	r24, r18
     c7e:	93 1f       	adc	r25, r19
     c80:	90 93 09 02 	sts	0x0209, r25
     c84:	80 93 08 02 	sts	0x0208, r24
	if(second > 59 || second < 0) {
     c88:	80 91 08 02 	lds	r24, 0x0208
     c8c:	90 91 09 02 	lds	r25, 0x0209
     c90:	cc 97       	sbiw	r24, 0x3c	; 60
     c92:	34 f4       	brge	.+12     	; 0xca0 <_Z3seti+0x11c>
     c94:	80 91 08 02 	lds	r24, 0x0208
     c98:	90 91 09 02 	lds	r25, 0x0209
     c9c:	99 23       	and	r25, r25
     c9e:	3c f4       	brge	.+14     	; 0xcae <_Z3seti+0x12a>
		count = 4;
     ca0:	84 e0       	ldi	r24, 0x04	; 4
     ca2:	90 e0       	ldi	r25, 0x00	; 0
     ca4:	90 93 ee 02 	sts	0x02EE, r25
     ca8:	80 93 ed 02 	sts	0x02ED, r24
     cac:	11 c0       	rjmp	.+34     	; 0xcd0 <_Z3seti+0x14c>
	}
	
	if(count == 2) {
     cae:	80 91 ed 02 	lds	r24, 0x02ED
     cb2:	90 91 ee 02 	lds	r25, 0x02EE
     cb6:	82 30       	cpi	r24, 0x02	; 2
     cb8:	91 05       	cpc	r25, r1
     cba:	39 f4       	brne	.+14     	; 0xcca <_Z3seti+0x146>
		lcd_pos = count + 1;
     cbc:	83 e0       	ldi	r24, 0x03	; 3
     cbe:	90 e0       	ldi	r25, 0x00	; 0
     cc0:	90 93 ec 02 	sts	0x02EC, r25
     cc4:	80 93 eb 02 	sts	0x02EB, r24
     cc8:	08 95       	ret
	} else if(count == 4) {
     cca:	84 30       	cpi	r24, 0x04	; 4
     ccc:	91 05       	cpc	r25, r1
     cce:	39 f4       	brne	.+14     	; 0xcde <_Z3seti+0x15a>
		lcd_pos = count + 2;
     cd0:	86 e0       	ldi	r24, 0x06	; 6
     cd2:	90 e0       	ldi	r25, 0x00	; 0
     cd4:	90 93 ec 02 	sts	0x02EC, r25
     cd8:	80 93 eb 02 	sts	0x02EB, r24
     cdc:	08 95       	ret
	}else {
		lcd_pos++;
     cde:	20 91 eb 02 	lds	r18, 0x02EB
     ce2:	30 91 ec 02 	lds	r19, 0x02EC
     ce6:	2f 5f       	subi	r18, 0xFF	; 255
     ce8:	3f 4f       	sbci	r19, 0xFF	; 255
     cea:	30 93 ec 02 	sts	0x02EC, r19
     cee:	20 93 eb 02 	sts	0x02EB, r18
	}
	if(count == 6) {
     cf2:	06 97       	sbiw	r24, 0x06	; 6
     cf4:	41 f4       	brne	.+16     	; 0xd06 <_Z3seti+0x182>
		count = 0;
     cf6:	10 92 ee 02 	sts	0x02EE, r1
     cfa:	10 92 ed 02 	sts	0x02ED, r1
		lcd_pos = 0;
     cfe:	10 92 ec 02 	sts	0x02EC, r1
     d02:	10 92 eb 02 	sts	0x02EB, r1
     d06:	08 95       	ret

00000d08 <__vector_47>:
	}
}

ISR(TIMER5_COMPA_vect) {
     d08:	1f 92       	push	r1
     d0a:	0f 92       	push	r0
     d0c:	0f b6       	in	r0, 0x3f	; 63
     d0e:	0f 92       	push	r0
     d10:	11 24       	eor	r1, r1
     d12:	8f 93       	push	r24
	TCNT5 = 0;
     d14:	10 92 25 01 	sts	0x0125, r1
     d18:	10 92 24 01 	sts	0x0124, r1
	second_lapsed = true;
     d1c:	81 e0       	ldi	r24, 0x01	; 1
     d1e:	80 93 e1 02 	sts	0x02E1, r24
}
     d22:	8f 91       	pop	r24
     d24:	0f 90       	pop	r0
     d26:	0f be       	out	0x3f, r0	; 63
     d28:	0f 90       	pop	r0
     d2a:	1f 90       	pop	r1
     d2c:	18 95       	reti

00000d2e <__vector_32>:

ISR(TIMER3_COMPA_vect) {
     d2e:	1f 92       	push	r1
     d30:	0f 92       	push	r0
     d32:	0f b6       	in	r0, 0x3f	; 63
     d34:	0f 92       	push	r0
     d36:	11 24       	eor	r1, r1
     d38:	8f 93       	push	r24
	TCNT3 = 0;
     d3a:	10 92 95 00 	sts	0x0095, r1
     d3e:	10 92 94 00 	sts	0x0094, r1
	heaterCountUpdate = true;
     d42:	81 e0       	ldi	r24, 0x01	; 1
     d44:	80 93 c8 02 	sts	0x02C8, r24
}
     d48:	8f 91       	pop	r24
     d4a:	0f 90       	pop	r0
     d4c:	0f be       	out	0x3f, r0	; 63
     d4e:	0f 90       	pop	r0
     d50:	1f 90       	pop	r1
     d52:	18 95       	reti

00000d54 <_Z5checkv>:

void check() {
     d54:	cf 92       	push	r12
     d56:	df 92       	push	r13
     d58:	ef 92       	push	r14
     d5a:	ff 92       	push	r15
     d5c:	cf 93       	push	r28
	
	if(temperature > 35) {
     d5e:	c0 90 d5 02 	lds	r12, 0x02D5
     d62:	d0 90 d6 02 	lds	r13, 0x02D6
     d66:	e0 90 d7 02 	lds	r14, 0x02D7
     d6a:	f0 90 d8 02 	lds	r15, 0x02D8
     d6e:	20 e0       	ldi	r18, 0x00	; 0
     d70:	30 e0       	ldi	r19, 0x00	; 0
     d72:	4c e0       	ldi	r20, 0x0C	; 12
     d74:	52 e4       	ldi	r21, 0x42	; 66
     d76:	c7 01       	movw	r24, r14
     d78:	b6 01       	movw	r22, r12
     d7a:	0e 94 07 10 	call	0x200e	; 0x200e <__gesf2>
     d7e:	18 16       	cp	r1, r24
     d80:	7c f4       	brge	.+30     	; 0xda0 <_Z5checkv+0x4c>
		leds.led_do(TA_LOW_LED,OFF);
     d82:	40 e0       	ldi	r20, 0x00	; 0
     d84:	50 e0       	ldi	r21, 0x00	; 0
     d86:	64 e0       	ldi	r22, 0x04	; 4
     d88:	70 e0       	ldi	r23, 0x00	; 0
     d8a:	8b eb       	ldi	r24, 0xBB	; 187
     d8c:	92 e0       	ldi	r25, 0x02	; 2
     d8e:	05 d6       	rcall	.+3082   	; 0x199a <_ZN3led6led_doEii>
		leds.led_do(TA_HIGH_LED,ON);
     d90:	41 e0       	ldi	r20, 0x01	; 1
     d92:	50 e0       	ldi	r21, 0x00	; 0
     d94:	65 e0       	ldi	r22, 0x05	; 5
     d96:	70 e0       	ldi	r23, 0x00	; 0
     d98:	8b eb       	ldi	r24, 0xBB	; 187
     d9a:	92 e0       	ldi	r25, 0x02	; 2
     d9c:	fe d5       	rcall	.+3068   	; 0x199a <_ZN3led6led_doEii>
     d9e:	26 c0       	rjmp	.+76     	; 0xdec <_Z5checkv+0x98>
		//REGISTER_SET1(LEDP,LED0);
		} else if(temperature < 31) {
     da0:	20 e0       	ldi	r18, 0x00	; 0
     da2:	30 e0       	ldi	r19, 0x00	; 0
     da4:	48 ef       	ldi	r20, 0xF8	; 248
     da6:	51 e4       	ldi	r21, 0x41	; 65
     da8:	c7 01       	movw	r24, r14
     daa:	b6 01       	movw	r22, r12
     dac:	e1 d7       	rcall	.+4034   	; 0x1d70 <__cmpsf2>
     dae:	88 23       	and	r24, r24
     db0:	7c f4       	brge	.+30     	; 0xdd0 <_Z5checkv+0x7c>
			leds.led_do(TA_HIGH_LED,OFF);
     db2:	40 e0       	ldi	r20, 0x00	; 0
     db4:	50 e0       	ldi	r21, 0x00	; 0
     db6:	65 e0       	ldi	r22, 0x05	; 5
     db8:	70 e0       	ldi	r23, 0x00	; 0
     dba:	8b eb       	ldi	r24, 0xBB	; 187
     dbc:	92 e0       	ldi	r25, 0x02	; 2
     dbe:	ed d5       	rcall	.+3034   	; 0x199a <_ZN3led6led_doEii>
			leds.led_do(TA_LOW_LED, ON);
     dc0:	41 e0       	ldi	r20, 0x01	; 1
     dc2:	50 e0       	ldi	r21, 0x00	; 0
     dc4:	64 e0       	ldi	r22, 0x04	; 4
     dc6:	70 e0       	ldi	r23, 0x00	; 0
     dc8:	8b eb       	ldi	r24, 0xBB	; 187
     dca:	92 e0       	ldi	r25, 0x02	; 2
     dcc:	e6 d5       	rcall	.+3020   	; 0x199a <_ZN3led6led_doEii>
     dce:	0e c0       	rjmp	.+28     	; 0xdec <_Z5checkv+0x98>
		//REGISTER_SET1(LEDP,LED1);
		} else {
			leds.led_do(TA_HIGH_LED,OFF);
     dd0:	40 e0       	ldi	r20, 0x00	; 0
     dd2:	50 e0       	ldi	r21, 0x00	; 0
     dd4:	65 e0       	ldi	r22, 0x05	; 5
     dd6:	70 e0       	ldi	r23, 0x00	; 0
     dd8:	8b eb       	ldi	r24, 0xBB	; 187
     dda:	92 e0       	ldi	r25, 0x02	; 2
     ddc:	de d5       	rcall	.+3004   	; 0x199a <_ZN3led6led_doEii>
			leds.led_do(TA_LOW_LED, OFF);
     dde:	40 e0       	ldi	r20, 0x00	; 0
     de0:	50 e0       	ldi	r21, 0x00	; 0
     de2:	64 e0       	ldi	r22, 0x04	; 4
     de4:	70 e0       	ldi	r23, 0x00	; 0
     de6:	8b eb       	ldi	r24, 0xBB	; 187
     de8:	92 e0       	ldi	r25, 0x02	; 2
     dea:	d7 d5       	rcall	.+2990   	; 0x199a <_ZN3led6led_doEii>
		//REGISTER_RESET(LEDP, LED0);
		//REGISTER_RESET(LEDP, LED1);
	}
	
	if(skin_temp > 35) {
     dec:	c0 90 cd 02 	lds	r12, 0x02CD
     df0:	d0 90 ce 02 	lds	r13, 0x02CE
     df4:	e0 90 cf 02 	lds	r14, 0x02CF
     df8:	f0 90 d0 02 	lds	r15, 0x02D0
     dfc:	20 e0       	ldi	r18, 0x00	; 0
     dfe:	30 e0       	ldi	r19, 0x00	; 0
     e00:	4c e0       	ldi	r20, 0x0C	; 12
     e02:	52 e4       	ldi	r21, 0x42	; 66
     e04:	c7 01       	movw	r24, r14
     e06:	b6 01       	movw	r22, r12
     e08:	0e 94 07 10 	call	0x200e	; 0x200e <__gesf2>
     e0c:	18 16       	cp	r1, r24
     e0e:	7c f4       	brge	.+30     	; 0xe2e <_Z5checkv+0xda>
		leds.led_do(TS_LOW_LED,OFF);
     e10:	40 e0       	ldi	r20, 0x00	; 0
     e12:	50 e0       	ldi	r21, 0x00	; 0
     e14:	60 e0       	ldi	r22, 0x00	; 0
     e16:	70 e0       	ldi	r23, 0x00	; 0
     e18:	8b eb       	ldi	r24, 0xBB	; 187
     e1a:	92 e0       	ldi	r25, 0x02	; 2
     e1c:	be d5       	rcall	.+2940   	; 0x199a <_ZN3led6led_doEii>
		leds.led_do(TS_HIGH_LED,ON);
     e1e:	41 e0       	ldi	r20, 0x01	; 1
     e20:	50 e0       	ldi	r21, 0x00	; 0
     e22:	61 e0       	ldi	r22, 0x01	; 1
     e24:	70 e0       	ldi	r23, 0x00	; 0
     e26:	8b eb       	ldi	r24, 0xBB	; 187
     e28:	92 e0       	ldi	r25, 0x02	; 2
     e2a:	b7 d5       	rcall	.+2926   	; 0x199a <_ZN3led6led_doEii>
     e2c:	26 c0       	rjmp	.+76     	; 0xe7a <_Z5checkv+0x126>
		//REGISTER_SET1(LEDP,LED2);
		} else if(skin_temp < 31) {
     e2e:	20 e0       	ldi	r18, 0x00	; 0
     e30:	30 e0       	ldi	r19, 0x00	; 0
     e32:	48 ef       	ldi	r20, 0xF8	; 248
     e34:	51 e4       	ldi	r21, 0x41	; 65
     e36:	c7 01       	movw	r24, r14
     e38:	b6 01       	movw	r22, r12
     e3a:	9a d7       	rcall	.+3892   	; 0x1d70 <__cmpsf2>
     e3c:	88 23       	and	r24, r24
     e3e:	7c f4       	brge	.+30     	; 0xe5e <_Z5checkv+0x10a>
			leds.led_do(TS_HIGH_LED,OFF);
     e40:	40 e0       	ldi	r20, 0x00	; 0
     e42:	50 e0       	ldi	r21, 0x00	; 0
     e44:	61 e0       	ldi	r22, 0x01	; 1
     e46:	70 e0       	ldi	r23, 0x00	; 0
     e48:	8b eb       	ldi	r24, 0xBB	; 187
     e4a:	92 e0       	ldi	r25, 0x02	; 2
     e4c:	a6 d5       	rcall	.+2892   	; 0x199a <_ZN3led6led_doEii>
			leds.led_do(TS_LOW_LED, ON);
     e4e:	41 e0       	ldi	r20, 0x01	; 1
     e50:	50 e0       	ldi	r21, 0x00	; 0
     e52:	60 e0       	ldi	r22, 0x00	; 0
     e54:	70 e0       	ldi	r23, 0x00	; 0
     e56:	8b eb       	ldi	r24, 0xBB	; 187
     e58:	92 e0       	ldi	r25, 0x02	; 2
     e5a:	9f d5       	rcall	.+2878   	; 0x199a <_ZN3led6led_doEii>
     e5c:	0e c0       	rjmp	.+28     	; 0xe7a <_Z5checkv+0x126>
		//REGISTER_SET1(LEDP,LED3);
		} else {
			leds.led_do(TS_HIGH_LED,OFF);
     e5e:	40 e0       	ldi	r20, 0x00	; 0
     e60:	50 e0       	ldi	r21, 0x00	; 0
     e62:	61 e0       	ldi	r22, 0x01	; 1
     e64:	70 e0       	ldi	r23, 0x00	; 0
     e66:	8b eb       	ldi	r24, 0xBB	; 187
     e68:	92 e0       	ldi	r25, 0x02	; 2
     e6a:	97 d5       	rcall	.+2862   	; 0x199a <_ZN3led6led_doEii>
			leds.led_do(TS_LOW_LED, OFF);
     e6c:	40 e0       	ldi	r20, 0x00	; 0
     e6e:	50 e0       	ldi	r21, 0x00	; 0
     e70:	60 e0       	ldi	r22, 0x00	; 0
     e72:	70 e0       	ldi	r23, 0x00	; 0
     e74:	8b eb       	ldi	r24, 0xBB	; 187
     e76:	92 e0       	ldi	r25, 0x02	; 2
     e78:	90 d5       	rcall	.+2848   	; 0x199a <_ZN3led6led_doEii>
		//REGISTER_RESET(LEDP, LED2);
		//REGISTER_RESET(LEDP, LED3);
	}
	
	
	if(humidity >60) {
     e7a:	c0 90 d9 02 	lds	r12, 0x02D9
     e7e:	d0 90 da 02 	lds	r13, 0x02DA
     e82:	e0 90 db 02 	lds	r14, 0x02DB
     e86:	f0 90 dc 02 	lds	r15, 0x02DC
     e8a:	20 e0       	ldi	r18, 0x00	; 0
     e8c:	30 e0       	ldi	r19, 0x00	; 0
     e8e:	40 e7       	ldi	r20, 0x70	; 112
     e90:	52 e4       	ldi	r21, 0x42	; 66
     e92:	c7 01       	movw	r24, r14
     e94:	b6 01       	movw	r22, r12
     e96:	0e 94 07 10 	call	0x200e	; 0x200e <__gesf2>
     e9a:	18 16       	cp	r1, r24
     e9c:	7c f4       	brge	.+30     	; 0xebc <_Z5checkv+0x168>
		leds.led_do(RH_LOW_LED,OFF);
     e9e:	40 e0       	ldi	r20, 0x00	; 0
     ea0:	50 e0       	ldi	r21, 0x00	; 0
     ea2:	62 e0       	ldi	r22, 0x02	; 2
     ea4:	70 e0       	ldi	r23, 0x00	; 0
     ea6:	8b eb       	ldi	r24, 0xBB	; 187
     ea8:	92 e0       	ldi	r25, 0x02	; 2
     eaa:	77 d5       	rcall	.+2798   	; 0x199a <_ZN3led6led_doEii>
		leds.led_do(RH_HIGH_LED, ON);
     eac:	41 e0       	ldi	r20, 0x01	; 1
     eae:	50 e0       	ldi	r21, 0x00	; 0
     eb0:	63 e0       	ldi	r22, 0x03	; 3
     eb2:	70 e0       	ldi	r23, 0x00	; 0
     eb4:	8b eb       	ldi	r24, 0xBB	; 187
     eb6:	92 e0       	ldi	r25, 0x02	; 2
     eb8:	70 d5       	rcall	.+2784   	; 0x199a <_ZN3led6led_doEii>
     eba:	26 c0       	rjmp	.+76     	; 0xf08 <_Z5checkv+0x1b4>
		//REGISTER_SET1(LEDP,LED4);
		} else if(humidity < 35) {
     ebc:	20 e0       	ldi	r18, 0x00	; 0
     ebe:	30 e0       	ldi	r19, 0x00	; 0
     ec0:	4c e0       	ldi	r20, 0x0C	; 12
     ec2:	52 e4       	ldi	r21, 0x42	; 66
     ec4:	c7 01       	movw	r24, r14
     ec6:	b6 01       	movw	r22, r12
     ec8:	53 d7       	rcall	.+3750   	; 0x1d70 <__cmpsf2>
     eca:	88 23       	and	r24, r24
     ecc:	7c f4       	brge	.+30     	; 0xeec <_Z5checkv+0x198>
			leds.led_do(RH_LOW_LED,ON);
     ece:	41 e0       	ldi	r20, 0x01	; 1
     ed0:	50 e0       	ldi	r21, 0x00	; 0
     ed2:	62 e0       	ldi	r22, 0x02	; 2
     ed4:	70 e0       	ldi	r23, 0x00	; 0
     ed6:	8b eb       	ldi	r24, 0xBB	; 187
     ed8:	92 e0       	ldi	r25, 0x02	; 2
     eda:	5f d5       	rcall	.+2750   	; 0x199a <_ZN3led6led_doEii>
			leds.led_do(RH_HIGH_LED, OFF);
     edc:	40 e0       	ldi	r20, 0x00	; 0
     ede:	50 e0       	ldi	r21, 0x00	; 0
     ee0:	63 e0       	ldi	r22, 0x03	; 3
     ee2:	70 e0       	ldi	r23, 0x00	; 0
     ee4:	8b eb       	ldi	r24, 0xBB	; 187
     ee6:	92 e0       	ldi	r25, 0x02	; 2
     ee8:	58 d5       	rcall	.+2736   	; 0x199a <_ZN3led6led_doEii>
     eea:	0e c0       	rjmp	.+28     	; 0xf08 <_Z5checkv+0x1b4>
		//REGISTER_SET1(LEDP, LED5);
		} else {
			leds.led_do(RH_HIGH_LED,OFF);
     eec:	40 e0       	ldi	r20, 0x00	; 0
     eee:	50 e0       	ldi	r21, 0x00	; 0
     ef0:	63 e0       	ldi	r22, 0x03	; 3
     ef2:	70 e0       	ldi	r23, 0x00	; 0
     ef4:	8b eb       	ldi	r24, 0xBB	; 187
     ef6:	92 e0       	ldi	r25, 0x02	; 2
     ef8:	50 d5       	rcall	.+2720   	; 0x199a <_ZN3led6led_doEii>
			leds.led_do(RH_LOW_LED, OFF);
     efa:	40 e0       	ldi	r20, 0x00	; 0
     efc:	50 e0       	ldi	r21, 0x00	; 0
     efe:	62 e0       	ldi	r22, 0x02	; 2
     f00:	70 e0       	ldi	r23, 0x00	; 0
     f02:	8b eb       	ldi	r24, 0xBB	; 187
     f04:	92 e0       	ldi	r25, 0x02	; 2
     f06:	49 d5       	rcall	.+2706   	; 0x199a <_ZN3led6led_doEii>
		STOP_HEATER;
		incubator_running = false;
		timerr.stopTimer();
	}*/
	
	if(bit_is_clear(KEYPAD_BUTTON_PORT, KEYPAD_BUTTON_PIN) && !pressed_keypad) {
     f08:	80 91 06 01 	lds	r24, 0x0106
     f0c:	84 fd       	sbrc	r24, 4
     f0e:	2c c1       	rjmp	.+600    	; 0x1168 <_Z5checkv+0x414>
     f10:	80 91 df 02 	lds	r24, 0x02DF
     f14:	81 11       	cpse	r24, r1
     f16:	28 c1       	rjmp	.+592    	; 0x1168 <_Z5checkv+0x414>
     f18:	0e c1       	rjmp	.+540    	; 0x1136 <_Z5checkv+0x3e2>
		//lcd_clear();
		
		keypad_enable = !keypad_enable;
		Printf(4, "Keypad %b", keypad_enable);
		if(keypad_enable) {
			leds.led_do(KEYPAD_ENABLE_LED, ON);
     f1a:	41 e0       	ldi	r20, 0x01	; 1
     f1c:	50 e0       	ldi	r21, 0x00	; 0
     f1e:	69 e0       	ldi	r22, 0x09	; 9
     f20:	70 e0       	ldi	r23, 0x00	; 0
     f22:	8b eb       	ldi	r24, 0xBB	; 187
     f24:	92 e0       	ldi	r25, 0x02	; 2
     f26:	39 d5       	rcall	.+2674   	; 0x199a <_ZN3led6led_doEii>
     f28:	07 c0       	rjmp	.+14     	; 0xf38 <_Z5checkv+0x1e4>
		} else {
			leds.led_do(KEYPAD_ENABLE_LED, OFF);
     f2a:	40 e0       	ldi	r20, 0x00	; 0
     f2c:	50 e0       	ldi	r21, 0x00	; 0
     f2e:	69 e0       	ldi	r22, 0x09	; 9
     f30:	70 e0       	ldi	r23, 0x00	; 0
     f32:	8b eb       	ldi	r24, 0xBB	; 187
     f34:	92 e0       	ldi	r25, 0x02	; 2
     f36:	31 d5       	rcall	.+2658   	; 0x199a <_ZN3led6led_doEii>
		}
		pressed_keypad = true;
     f38:	81 e0       	ldi	r24, 0x01	; 1
     f3a:	80 93 df 02 	sts	0x02DF, r24
	} else {
		pressed_keypad = false;
	}
	
	if(bit_is_clear(START_PHOTO_BUTTON_PORT, START_PHOTO_BUTTON_PIN) && !pressed_photo_start) {
     f3e:	7f 99       	sbic	0x0f, 7	; 15
     f40:	26 c1       	rjmp	.+588    	; 0x118e <_Z5checkv+0x43a>
     f42:	80 91 e6 02 	lds	r24, 0x02E6
     f46:	81 11       	cpse	r24, r1
     f48:	22 c1       	rjmp	.+580    	; 0x118e <_Z5checkv+0x43a>
     f4a:	11 c1       	rjmp	.+546    	; 0x116e <_Z5checkv+0x41a>
		
		//lcd_clear();
		Printf(4, "START PHOTO");
		if(door_closed) {
			photo_start = true;
     f4c:	81 e0       	ldi	r24, 0x01	; 1
     f4e:	80 93 e7 02 	sts	0x02E7, r24
			phototherapy.start_phototherapy(50);
     f52:	62 e3       	ldi	r22, 0x32	; 50
     f54:	70 e0       	ldi	r23, 0x00	; 0
     f56:	8c eb       	ldi	r24, 0xBC	; 188
     f58:	92 e0       	ldi	r25, 0x02	; 2
     f5a:	bc d5       	rcall	.+2936   	; 0x1ad4 <_ZN12PhotoTherapy18start_phototherapyEi>
		}
		pressed_photo_start = true;
     f5c:	81 e0       	ldi	r24, 0x01	; 1
     f5e:	80 93 e6 02 	sts	0x02E6, r24
     f62:	02 c0       	rjmp	.+4      	; 0xf68 <_Z5checkv+0x214>
		} else if(bit_is_set(START_PHOTO_BUTTON_PORT, START_PHOTO_BUTTON_PIN)) {
		pressed_photo_start = false;
     f64:	10 92 e6 02 	sts	0x02E6, r1
	}
	
	if(bit_is_clear(STOP_PHOTO_BUTTON_PORT, STOP_PHOTO_BUTTON_PIN) && !pressed_photo_stop) {
     f68:	80 91 06 01 	lds	r24, 0x0106
     f6c:	80 fd       	sbrc	r24, 0
     f6e:	25 c1       	rjmp	.+586    	; 0x11ba <_Z5checkv+0x466>
     f70:	80 91 e5 02 	lds	r24, 0x02E5
     f74:	81 11       	cpse	r24, r1
     f76:	21 c1       	rjmp	.+578    	; 0x11ba <_Z5checkv+0x466>
     f78:	0d c1       	rjmp	.+538    	; 0x1194 <_Z5checkv+0x440>
		
		photo_start = false;
		phototherapy.stop_phototherapy();
		pressed_photo_stop = true;
		} else if(bit_is_set(STOP_PHOTO_BUTTON_PORT, STOP_PHOTO_BUTTON_PIN)) {
		pressed_photo_stop = false;
     f7a:	10 92 e5 02 	sts	0x02E5, r1
	}
	
	if(bit_is_clear(START_INCUBATOR_BUTTON_PORT, START_INCUBATOR_BUTTON_PIN) && !pressed_incubator_start) {
     f7e:	7d 99       	sbic	0x0f, 5	; 15
     f80:	21 c1       	rjmp	.+578    	; 0x11c4 <_Z5checkv+0x470>
     f82:	80 91 e4 02 	lds	r24, 0x02E4
     f86:	81 11       	cpse	r24, r1
     f88:	1d c1       	rjmp	.+570    	; 0x11c4 <_Z5checkv+0x470>
     f8a:	1f c1       	rjmp	.+574    	; 0x11ca <_Z5checkv+0x476>
		
		//lcd_clear();
		Printf(4, "START INCUBATOR");
		
		if(door_closed) {  //is door closed
			controls.startFan();
     f8c:	8a eb       	ldi	r24, 0xBA	; 186
     f8e:	92 e0       	ldi	r25, 0x02	; 2
     f90:	f6 d8       	rcall	.-3604   	; 0x17e <_ZN8Controls8startFanEv>
			controls.startHeater();
     f92:	8a eb       	ldi	r24, 0xBA	; 186
     f94:	92 e0       	ldi	r25, 0x02	; 2
     f96:	f8 d8       	rcall	.-3600   	; 0x188 <_ZN8Controls11startHeaterEv>
			
			heaterCount = heaterOnTime;
     f98:	80 91 03 02 	lds	r24, 0x0203
     f9c:	90 91 04 02 	lds	r25, 0x0204
     fa0:	90 93 ca 02 	sts	0x02CA, r25
     fa4:	80 93 c9 02 	sts	0x02C9, r24
			heatOn = true;
     fa8:	c1 e0       	ldi	r28, 0x01	; 1
     faa:	c0 93 00 02 	sts	0x0200, r28
			timerHeater.startCustomTimer(1000);
     fae:	68 ee       	ldi	r22, 0xE8	; 232
     fb0:	73 e0       	ldi	r23, 0x03	; 3
     fb2:	8e eb       	ldi	r24, 0xBE	; 190
     fb4:	92 e0       	ldi	r25, 0x02	; 2
     fb6:	45 d6       	rcall	.+3210   	; 0x1c42 <_ZN6Timerr16startCustomTimerEi>
			
			incubator_running = true;
     fb8:	c0 93 e8 02 	sts	0x02E8, r28
			timer_state = true;
     fbc:	c0 93 e9 02 	sts	0x02E9, r28
			phototherapy.start_phototherapy(50);
     fc0:	62 e3       	ldi	r22, 0x32	; 50
     fc2:	70 e0       	ldi	r23, 0x00	; 0
     fc4:	8c eb       	ldi	r24, 0xBC	; 188
     fc6:	92 e0       	ldi	r25, 0x02	; 2
     fc8:	85 d5       	rcall	.+2826   	; 0x1ad4 <_ZN12PhotoTherapy18start_phototherapyEi>
			photo_start = true;
     fca:	c0 93 e7 02 	sts	0x02E7, r28
			timer_set = false;
     fce:	10 92 ea 02 	sts	0x02EA, r1
			timerr.startCustomTimer(1000);
     fd2:	68 ee       	ldi	r22, 0xE8	; 232
     fd4:	73 e0       	ldi	r23, 0x03	; 3
     fd6:	80 ec       	ldi	r24, 0xC0	; 192
     fd8:	92 e0       	ldi	r25, 0x02	; 2
     fda:	33 d6       	rcall	.+3174   	; 0x1c42 <_ZN6Timerr16startCustomTimerEi>
			leds.led_do(TIMER_RUNNING_LED, ON);
     fdc:	41 e0       	ldi	r20, 0x01	; 1
     fde:	50 e0       	ldi	r21, 0x00	; 0
     fe0:	66 e0       	ldi	r22, 0x06	; 6
     fe2:	70 e0       	ldi	r23, 0x00	; 0
     fe4:	8b eb       	ldi	r24, 0xBB	; 187
     fe6:	92 e0       	ldi	r25, 0x02	; 2
     fe8:	d8 d4       	rcall	.+2480   	; 0x199a <_ZN3led6led_doEii>
			leds.led_do(HEATER_ON_LED, ON);
     fea:	41 e0       	ldi	r20, 0x01	; 1
     fec:	50 e0       	ldi	r21, 0x00	; 0
     fee:	6c e0       	ldi	r22, 0x0C	; 12
     ff0:	70 e0       	ldi	r23, 0x00	; 0
     ff2:	8b eb       	ldi	r24, 0xBB	; 187
     ff4:	92 e0       	ldi	r25, 0x02	; 2
     ff6:	d1 d4       	rcall	.+2466   	; 0x199a <_ZN3led6led_doEii>
			leds.led_do(FAN_ON_LED, ON);
     ff8:	41 e0       	ldi	r20, 0x01	; 1
     ffa:	50 e0       	ldi	r21, 0x00	; 0
     ffc:	6b e0       	ldi	r22, 0x0B	; 11
     ffe:	70 e0       	ldi	r23, 0x00	; 0
    1000:	8b eb       	ldi	r24, 0xBB	; 187
    1002:	92 e0       	ldi	r25, 0x02	; 2
    1004:	ca d4       	rcall	.+2452   	; 0x199a <_ZN3led6led_doEii>
		}
		pressed_incubator_start = true;
    1006:	81 e0       	ldi	r24, 0x01	; 1
    1008:	80 93 e4 02 	sts	0x02E4, r24
    100c:	02 c0       	rjmp	.+4      	; 0x1012 <_Z5checkv+0x2be>
		} else if(bit_is_set(START_INCUBATOR_BUTTON_PORT, START_INCUBATOR_BUTTON_PIN)) {
		pressed_incubator_start = false;
    100e:	10 92 e4 02 	sts	0x02E4, r1
	}
	
	if(!timer_state && incubator_running) {
    1012:	80 91 e9 02 	lds	r24, 0x02E9
    1016:	81 11       	cpse	r24, r1
    1018:	37 c0       	rjmp	.+110    	; 0x1088 <_Z5checkv+0x334>
    101a:	80 91 e8 02 	lds	r24, 0x02E8
    101e:	88 23       	and	r24, r24
    1020:	99 f1       	breq	.+102    	; 0x1088 <_Z5checkv+0x334>
		phototherapy.stop_phototherapy();
    1022:	8c eb       	ldi	r24, 0xBC	; 188
    1024:	92 e0       	ldi	r25, 0x02	; 2
    1026:	60 d5       	rcall	.+2752   	; 0x1ae8 <_ZN12PhotoTherapy17stop_phototherapyEv>
		incubator_running = false;
    1028:	10 92 e8 02 	sts	0x02E8, r1
		timerr.stopTimer();
    102c:	80 ec       	ldi	r24, 0xC0	; 192
    102e:	92 e0       	ldi	r25, 0x02	; 2
    1030:	b8 d5       	rcall	.+2928   	; 0x1ba2 <_ZN6Timerr9stopTimerEv>
		leds.led_do(TIMER_RUNNING_LED, OFF);
    1032:	40 e0       	ldi	r20, 0x00	; 0
    1034:	50 e0       	ldi	r21, 0x00	; 0
    1036:	66 e0       	ldi	r22, 0x06	; 6
    1038:	70 e0       	ldi	r23, 0x00	; 0
    103a:	8b eb       	ldi	r24, 0xBB	; 187
    103c:	92 e0       	ldi	r25, 0x02	; 2
    103e:	ad d4       	rcall	.+2394   	; 0x199a <_ZN3led6led_doEii>
		leds.led_do(HEATER_ON_LED, OFF);
    1040:	40 e0       	ldi	r20, 0x00	; 0
    1042:	50 e0       	ldi	r21, 0x00	; 0
    1044:	6c e0       	ldi	r22, 0x0C	; 12
    1046:	70 e0       	ldi	r23, 0x00	; 0
    1048:	8b eb       	ldi	r24, 0xBB	; 187
    104a:	92 e0       	ldi	r25, 0x02	; 2
    104c:	a6 d4       	rcall	.+2380   	; 0x199a <_ZN3led6led_doEii>
		leds.led_do(FAN_ON_LED, OFF);
    104e:	40 e0       	ldi	r20, 0x00	; 0
    1050:	50 e0       	ldi	r21, 0x00	; 0
    1052:	6b e0       	ldi	r22, 0x0B	; 11
    1054:	70 e0       	ldi	r23, 0x00	; 0
    1056:	8b eb       	ldi	r24, 0xBB	; 187
    1058:	92 e0       	ldi	r25, 0x02	; 2
    105a:	9f d4       	rcall	.+2366   	; 0x199a <_ZN3led6led_doEii>
		
		heaterCount = heaterOnTime;
    105c:	80 91 03 02 	lds	r24, 0x0203
    1060:	90 91 04 02 	lds	r25, 0x0204
    1064:	90 93 ca 02 	sts	0x02CA, r25
    1068:	80 93 c9 02 	sts	0x02C9, r24
		heatOn = true;
    106c:	81 e0       	ldi	r24, 0x01	; 1
    106e:	80 93 00 02 	sts	0x0200, r24
		timerHeater.stopTimer();
    1072:	8e eb       	ldi	r24, 0xBE	; 190
    1074:	92 e0       	ldi	r25, 0x02	; 2
    1076:	95 d5       	rcall	.+2858   	; 0x1ba2 <_ZN6Timerr9stopTimerEv>
		
		photo_start = false;
    1078:	10 92 e7 02 	sts	0x02E7, r1
		controls.stopFan();
    107c:	8a eb       	ldi	r24, 0xBA	; 186
    107e:	92 e0       	ldi	r25, 0x02	; 2
    1080:	85 d8       	rcall	.-3830   	; 0x18c <_ZN8Controls7stopFanEv>
		controls.stopHeater();
    1082:	8a eb       	ldi	r24, 0xBA	; 186
    1084:	92 e0       	ldi	r25, 0x02	; 2
    1086:	87 d8       	rcall	.-3826   	; 0x196 <_ZN8Controls10stopHeaterEv>
	}
	
	if(bit_is_clear(STOP_INCUBATOR_BUTTON_PORT, STOP_INCUBATOR_BUTTON_PIN) && !pressed_incubator_stop) {
    1088:	7e 99       	sbic	0x0f, 6	; 15
    108a:	f1 c0       	rjmp	.+482    	; 0x126e <_Z5checkv+0x51a>
    108c:	80 91 e3 02 	lds	r24, 0x02E3
    1090:	81 11       	cpse	r24, r1
    1092:	ed c0       	rjmp	.+474    	; 0x126e <_Z5checkv+0x51a>
    1094:	aa c0       	rjmp	.+340    	; 0x11ea <_Z5checkv+0x496>
		heaterCount = heaterOnTime;
		heatOn = true;
		timerHeater.stopTimer();
		
		} else if(bit_is_set(STOP_INCUBATOR_BUTTON_PORT, STOP_INCUBATOR_BUTTON_PIN)) {
		pressed_incubator_stop = false;
    1096:	10 92 e3 02 	sts	0x02E3, r1
		timerr.stopTimer();
	} else if(bit_is_clear(PINA, PINA4)) {
		pressed_system_fault = false;
	}*/
	
	if(bit_is_clear(RESET_BUTTON_PORT, RESET_BUTTON_PIN) && !pressed_restart_system) {
    109a:	80 91 06 01 	lds	r24, 0x0106
    109e:	81 fd       	sbrc	r24, 1
    10a0:	fd c0       	rjmp	.+506    	; 0x129c <_Z5checkv+0x548>
    10a2:	80 91 e2 02 	lds	r24, 0x02E2
    10a6:	81 11       	cpse	r24, r1
    10a8:	f9 c0       	rjmp	.+498    	; 0x129c <_Z5checkv+0x548>
    10aa:	e4 c0       	rjmp	.+456    	; 0x1274 <_Z5checkv+0x520>
		//lcd_clear();
		Printf(4, "RESET");
		pressed_restart_system = true;
		system_fault = true; //for testing purpose only
		if(system_fault && door_closed) {
			system_fault = false;
    10ac:	10 92 de 02 	sts	0x02DE, r1
			restart_system = true;
    10b0:	c1 e0       	ldi	r28, 0x01	; 1
    10b2:	c0 93 dd 02 	sts	0x02DD, r28
			incubator_running = true;
    10b6:	c0 93 e8 02 	sts	0x02E8, r28
			timer_state = true;
    10ba:	c0 93 e9 02 	sts	0x02E9, r28
			phototherapy.start_phototherapy(50);
    10be:	62 e3       	ldi	r22, 0x32	; 50
    10c0:	70 e0       	ldi	r23, 0x00	; 0
    10c2:	8c eb       	ldi	r24, 0xBC	; 188
    10c4:	92 e0       	ldi	r25, 0x02	; 2
    10c6:	06 d5       	rcall	.+2572   	; 0x1ad4 <_ZN12PhotoTherapy18start_phototherapyEi>
			photo_start = true;
    10c8:	c0 93 e7 02 	sts	0x02E7, r28
			timer_set = false;
    10cc:	10 92 ea 02 	sts	0x02EA, r1
			timerr.startCustomTimer(1000);
    10d0:	68 ee       	ldi	r22, 0xE8	; 232
    10d2:	73 e0       	ldi	r23, 0x03	; 3
    10d4:	80 ec       	ldi	r24, 0xC0	; 192
    10d6:	92 e0       	ldi	r25, 0x02	; 2
    10d8:	b4 d5       	rcall	.+2920   	; 0x1c42 <_ZN6Timerr16startCustomTimerEi>
			leds.led_do(TIMER_RUNNING_LED, ON);
    10da:	41 e0       	ldi	r20, 0x01	; 1
    10dc:	50 e0       	ldi	r21, 0x00	; 0
    10de:	66 e0       	ldi	r22, 0x06	; 6
    10e0:	70 e0       	ldi	r23, 0x00	; 0
    10e2:	8b eb       	ldi	r24, 0xBB	; 187
    10e4:	92 e0       	ldi	r25, 0x02	; 2
    10e6:	59 d4       	rcall	.+2226   	; 0x199a <_ZN3led6led_doEii>
			leds.led_do(HEATER_ON_LED, ON);
    10e8:	41 e0       	ldi	r20, 0x01	; 1
    10ea:	50 e0       	ldi	r21, 0x00	; 0
    10ec:	6c e0       	ldi	r22, 0x0C	; 12
    10ee:	70 e0       	ldi	r23, 0x00	; 0
    10f0:	8b eb       	ldi	r24, 0xBB	; 187
    10f2:	92 e0       	ldi	r25, 0x02	; 2
    10f4:	52 d4       	rcall	.+2212   	; 0x199a <_ZN3led6led_doEii>
			leds.led_do(FAN_ON_LED, ON);
    10f6:	41 e0       	ldi	r20, 0x01	; 1
    10f8:	50 e0       	ldi	r21, 0x00	; 0
    10fa:	6b e0       	ldi	r22, 0x0B	; 11
    10fc:	70 e0       	ldi	r23, 0x00	; 0
    10fe:	8b eb       	ldi	r24, 0xBB	; 187
    1100:	92 e0       	ldi	r25, 0x02	; 2
    1102:	4b d4       	rcall	.+2198   	; 0x199a <_ZN3led6led_doEii>
			
			controls.startFan();
    1104:	8a eb       	ldi	r24, 0xBA	; 186
    1106:	92 e0       	ldi	r25, 0x02	; 2
    1108:	3a d8       	rcall	.-3980   	; 0x17e <_ZN8Controls8startFanEv>
			controls.startHeater();
    110a:	8a eb       	ldi	r24, 0xBA	; 186
    110c:	92 e0       	ldi	r25, 0x02	; 2
    110e:	3c d8       	rcall	.-3976   	; 0x188 <_ZN8Controls11startHeaterEv>
			heaterCount = heaterOnTime;
    1110:	80 91 03 02 	lds	r24, 0x0203
    1114:	90 91 04 02 	lds	r25, 0x0204
    1118:	90 93 ca 02 	sts	0x02CA, r25
    111c:	80 93 c9 02 	sts	0x02C9, r24
			heatOn = true;
    1120:	c0 93 00 02 	sts	0x0200, r28
			timerHeater.startCustomTimer(1000);
    1124:	68 ee       	ldi	r22, 0xE8	; 232
    1126:	73 e0       	ldi	r23, 0x03	; 3
    1128:	8e eb       	ldi	r24, 0xBE	; 190
    112a:	92 e0       	ldi	r25, 0x02	; 2
    112c:	8a d5       	rcall	.+2836   	; 0x1c42 <_ZN6Timerr16startCustomTimerEi>
    112e:	ba c0       	rjmp	.+372    	; 0x12a4 <_Z5checkv+0x550>
		}
	} else if(bit_is_clear(RESET_BUTTON_PORT, RESET_BUTTON_PIN)){
		pressed_restart_system = false;
    1130:	10 92 e2 02 	sts	0x02E2, r1
    1134:	b7 c0       	rjmp	.+366    	; 0x12a4 <_Z5checkv+0x550>
	
	if(bit_is_clear(KEYPAD_BUTTON_PORT, KEYPAD_BUTTON_PIN) && !pressed_keypad) {
		
		//lcd_clear();
		
		keypad_enable = !keypad_enable;
    1136:	90 91 e0 02 	lds	r25, 0x02E0
    113a:	81 e0       	ldi	r24, 0x01	; 1
    113c:	89 27       	eor	r24, r25
    113e:	80 93 e0 02 	sts	0x02E0, r24
		Printf(4, "Keypad %b", keypad_enable);
    1142:	1f 92       	push	r1
    1144:	8f 93       	push	r24
    1146:	81 e4       	ldi	r24, 0x41	; 65
    1148:	92 e0       	ldi	r25, 0x02	; 2
    114a:	9f 93       	push	r25
    114c:	8f 93       	push	r24
    114e:	84 e0       	ldi	r24, 0x04	; 4
    1150:	8f 93       	push	r24
    1152:	31 d9       	rcall	.-3486   	; 0x3b6 <_Z6PrintfhPcz>
		if(keypad_enable) {
    1154:	0f 90       	pop	r0
    1156:	0f 90       	pop	r0
    1158:	0f 90       	pop	r0
    115a:	0f 90       	pop	r0
    115c:	0f 90       	pop	r0
    115e:	80 91 e0 02 	lds	r24, 0x02E0
    1162:	81 11       	cpse	r24, r1
    1164:	da ce       	rjmp	.-588    	; 0xf1a <_Z5checkv+0x1c6>
    1166:	e1 ce       	rjmp	.-574    	; 0xf2a <_Z5checkv+0x1d6>
		} else {
			leds.led_do(KEYPAD_ENABLE_LED, OFF);
		}
		pressed_keypad = true;
	} else {
		pressed_keypad = false;
    1168:	10 92 df 02 	sts	0x02DF, r1
    116c:	e8 ce       	rjmp	.-560    	; 0xf3e <_Z5checkv+0x1ea>
	}
	
	if(bit_is_clear(START_PHOTO_BUTTON_PORT, START_PHOTO_BUTTON_PIN) && !pressed_photo_start) {
		
		//lcd_clear();
		Printf(4, "START PHOTO");
    116e:	8b e4       	ldi	r24, 0x4B	; 75
    1170:	92 e0       	ldi	r25, 0x02	; 2
    1172:	9f 93       	push	r25
    1174:	8f 93       	push	r24
    1176:	84 e0       	ldi	r24, 0x04	; 4
    1178:	8f 93       	push	r24
    117a:	1d d9       	rcall	.-3526   	; 0x3b6 <_Z6PrintfhPcz>
		if(door_closed) {
    117c:	0f 90       	pop	r0
    117e:	0f 90       	pop	r0
    1180:	0f 90       	pop	r0
    1182:	80 91 05 02 	lds	r24, 0x0205
    1186:	88 23       	and	r24, r24
    1188:	09 f4       	brne	.+2      	; 0x118c <_Z5checkv+0x438>
    118a:	e8 ce       	rjmp	.-560    	; 0xf5c <_Z5checkv+0x208>
    118c:	df ce       	rjmp	.-578    	; 0xf4c <_Z5checkv+0x1f8>
			photo_start = true;
			phototherapy.start_phototherapy(50);
		}
		pressed_photo_start = true;
		} else if(bit_is_set(START_PHOTO_BUTTON_PORT, START_PHOTO_BUTTON_PIN)) {
    118e:	7f 9b       	sbis	0x0f, 7	; 15
    1190:	eb ce       	rjmp	.-554    	; 0xf68 <_Z5checkv+0x214>
    1192:	e8 ce       	rjmp	.-560    	; 0xf64 <_Z5checkv+0x210>
		pressed_photo_start = false;
	}
	
	if(bit_is_clear(STOP_PHOTO_BUTTON_PORT, STOP_PHOTO_BUTTON_PIN) && !pressed_photo_stop) {
		//lcd_clear();
		Printf(4,"STOP PHOTO");
    1194:	87 e5       	ldi	r24, 0x57	; 87
    1196:	92 e0       	ldi	r25, 0x02	; 2
    1198:	9f 93       	push	r25
    119a:	8f 93       	push	r24
    119c:	84 e0       	ldi	r24, 0x04	; 4
    119e:	8f 93       	push	r24
    11a0:	0a d9       	rcall	.-3564   	; 0x3b6 <_Z6PrintfhPcz>
		
		photo_start = false;
    11a2:	10 92 e7 02 	sts	0x02E7, r1
		phototherapy.stop_phototherapy();
    11a6:	8c eb       	ldi	r24, 0xBC	; 188
    11a8:	92 e0       	ldi	r25, 0x02	; 2
    11aa:	9e d4       	rcall	.+2364   	; 0x1ae8 <_ZN12PhotoTherapy17stop_phototherapyEv>
		pressed_photo_stop = true;
    11ac:	81 e0       	ldi	r24, 0x01	; 1
    11ae:	80 93 e5 02 	sts	0x02E5, r24
    11b2:	0f 90       	pop	r0
    11b4:	0f 90       	pop	r0
    11b6:	0f 90       	pop	r0
    11b8:	e2 ce       	rjmp	.-572    	; 0xf7e <_Z5checkv+0x22a>
		} else if(bit_is_set(STOP_PHOTO_BUTTON_PORT, STOP_PHOTO_BUTTON_PIN)) {
    11ba:	80 91 06 01 	lds	r24, 0x0106
    11be:	80 fd       	sbrc	r24, 0
    11c0:	dc ce       	rjmp	.-584    	; 0xf7a <_Z5checkv+0x226>
    11c2:	dd ce       	rjmp	.-582    	; 0xf7e <_Z5checkv+0x22a>
			leds.led_do(TIMER_RUNNING_LED, ON);
			leds.led_do(HEATER_ON_LED, ON);
			leds.led_do(FAN_ON_LED, ON);
		}
		pressed_incubator_start = true;
		} else if(bit_is_set(START_INCUBATOR_BUTTON_PORT, START_INCUBATOR_BUTTON_PIN)) {
    11c4:	7d 99       	sbic	0x0f, 5	; 15
    11c6:	23 cf       	rjmp	.-442    	; 0x100e <_Z5checkv+0x2ba>
    11c8:	24 cf       	rjmp	.-440    	; 0x1012 <_Z5checkv+0x2be>
	}
	
	if(bit_is_clear(START_INCUBATOR_BUTTON_PORT, START_INCUBATOR_BUTTON_PIN) && !pressed_incubator_start) {
		
		//lcd_clear();
		Printf(4, "START INCUBATOR");
    11ca:	82 e6       	ldi	r24, 0x62	; 98
    11cc:	92 e0       	ldi	r25, 0x02	; 2
    11ce:	9f 93       	push	r25
    11d0:	8f 93       	push	r24
    11d2:	84 e0       	ldi	r24, 0x04	; 4
    11d4:	8f 93       	push	r24
    11d6:	ef d8       	rcall	.-3618   	; 0x3b6 <_Z6PrintfhPcz>
		
		if(door_closed) {  //is door closed
    11d8:	0f 90       	pop	r0
    11da:	0f 90       	pop	r0
    11dc:	0f 90       	pop	r0
    11de:	80 91 05 02 	lds	r24, 0x0205
    11e2:	88 23       	and	r24, r24
    11e4:	09 f4       	brne	.+2      	; 0x11e8 <_Z5checkv+0x494>
    11e6:	0f cf       	rjmp	.-482    	; 0x1006 <_Z5checkv+0x2b2>
    11e8:	d1 ce       	rjmp	.-606    	; 0xf8c <_Z5checkv+0x238>
	}
	
	if(bit_is_clear(STOP_INCUBATOR_BUTTON_PORT, STOP_INCUBATOR_BUTTON_PIN) && !pressed_incubator_stop) {
		
		//lcd_clear();
		Printf(4, "STOP INCUBATOR");
    11ea:	82 e7       	ldi	r24, 0x72	; 114
    11ec:	92 e0       	ldi	r25, 0x02	; 2
    11ee:	9f 93       	push	r25
    11f0:	8f 93       	push	r24
    11f2:	84 e0       	ldi	r24, 0x04	; 4
    11f4:	8f 93       	push	r24
    11f6:	df d8       	rcall	.-3650   	; 0x3b6 <_Z6PrintfhPcz>
		incubator_running = false;
    11f8:	10 92 e8 02 	sts	0x02E8, r1
		photo_start = false;
    11fc:	10 92 e7 02 	sts	0x02E7, r1
		phototherapy.stop_phototherapy();
    1200:	8c eb       	ldi	r24, 0xBC	; 188
    1202:	92 e0       	ldi	r25, 0x02	; 2
    1204:	71 d4       	rcall	.+2274   	; 0x1ae8 <_ZN12PhotoTherapy17stop_phototherapyEv>
		timerr.stopTimer();
    1206:	80 ec       	ldi	r24, 0xC0	; 192
    1208:	92 e0       	ldi	r25, 0x02	; 2
    120a:	cb d4       	rcall	.+2454   	; 0x1ba2 <_ZN6Timerr9stopTimerEv>
		pressed_incubator_stop = true;
    120c:	c1 e0       	ldi	r28, 0x01	; 1
    120e:	c0 93 e3 02 	sts	0x02E3, r28
		leds.led_do(TIMER_RUNNING_LED, OFF);
    1212:	40 e0       	ldi	r20, 0x00	; 0
    1214:	50 e0       	ldi	r21, 0x00	; 0
    1216:	66 e0       	ldi	r22, 0x06	; 6
    1218:	70 e0       	ldi	r23, 0x00	; 0
    121a:	8b eb       	ldi	r24, 0xBB	; 187
    121c:	92 e0       	ldi	r25, 0x02	; 2
    121e:	bd d3       	rcall	.+1914   	; 0x199a <_ZN3led6led_doEii>
		leds.led_do(HEATER_ON_LED, OFF);
    1220:	40 e0       	ldi	r20, 0x00	; 0
    1222:	50 e0       	ldi	r21, 0x00	; 0
    1224:	6c e0       	ldi	r22, 0x0C	; 12
    1226:	70 e0       	ldi	r23, 0x00	; 0
    1228:	8b eb       	ldi	r24, 0xBB	; 187
    122a:	92 e0       	ldi	r25, 0x02	; 2
    122c:	b6 d3       	rcall	.+1900   	; 0x199a <_ZN3led6led_doEii>
		leds.led_do(FAN_ON_LED, OFF);
    122e:	40 e0       	ldi	r20, 0x00	; 0
    1230:	50 e0       	ldi	r21, 0x00	; 0
    1232:	6b e0       	ldi	r22, 0x0B	; 11
    1234:	70 e0       	ldi	r23, 0x00	; 0
    1236:	8b eb       	ldi	r24, 0xBB	; 187
    1238:	92 e0       	ldi	r25, 0x02	; 2
    123a:	af d3       	rcall	.+1886   	; 0x199a <_ZN3led6led_doEii>
		controls.stopFan();
    123c:	8a eb       	ldi	r24, 0xBA	; 186
    123e:	92 e0       	ldi	r25, 0x02	; 2
    1240:	0e 94 c6 00 	call	0x18c	; 0x18c <_ZN8Controls7stopFanEv>
		controls.stopHeater();
    1244:	8a eb       	ldi	r24, 0xBA	; 186
    1246:	92 e0       	ldi	r25, 0x02	; 2
    1248:	0e 94 cb 00 	call	0x196	; 0x196 <_ZN8Controls10stopHeaterEv>
		
		heaterCount = heaterOnTime;
    124c:	80 91 03 02 	lds	r24, 0x0203
    1250:	90 91 04 02 	lds	r25, 0x0204
    1254:	90 93 ca 02 	sts	0x02CA, r25
    1258:	80 93 c9 02 	sts	0x02C9, r24
		heatOn = true;
    125c:	c0 93 00 02 	sts	0x0200, r28
		timerHeater.stopTimer();
    1260:	8e eb       	ldi	r24, 0xBE	; 190
    1262:	92 e0       	ldi	r25, 0x02	; 2
    1264:	9e d4       	rcall	.+2364   	; 0x1ba2 <_ZN6Timerr9stopTimerEv>
    1266:	0f 90       	pop	r0
    1268:	0f 90       	pop	r0
    126a:	0f 90       	pop	r0
    126c:	16 cf       	rjmp	.-468    	; 0x109a <_Z5checkv+0x346>
		
		} else if(bit_is_set(STOP_INCUBATOR_BUTTON_PORT, STOP_INCUBATOR_BUTTON_PIN)) {
    126e:	7e 99       	sbic	0x0f, 6	; 15
    1270:	12 cf       	rjmp	.-476    	; 0x1096 <_Z5checkv+0x342>
    1272:	13 cf       	rjmp	.-474    	; 0x109a <_Z5checkv+0x346>
		pressed_system_fault = false;
	}*/
	
	if(bit_is_clear(RESET_BUTTON_PORT, RESET_BUTTON_PIN) && !pressed_restart_system) {
		//lcd_clear();
		Printf(4, "RESET");
    1274:	81 e8       	ldi	r24, 0x81	; 129
    1276:	92 e0       	ldi	r25, 0x02	; 2
    1278:	9f 93       	push	r25
    127a:	8f 93       	push	r24
    127c:	84 e0       	ldi	r24, 0x04	; 4
    127e:	8f 93       	push	r24
    1280:	9a d8       	rcall	.-3788   	; 0x3b6 <_Z6PrintfhPcz>
		pressed_restart_system = true;
    1282:	81 e0       	ldi	r24, 0x01	; 1
    1284:	80 93 e2 02 	sts	0x02E2, r24
		system_fault = true; //for testing purpose only
    1288:	80 93 de 02 	sts	0x02DE, r24
		if(system_fault && door_closed) {
    128c:	0f 90       	pop	r0
    128e:	0f 90       	pop	r0
    1290:	0f 90       	pop	r0
    1292:	80 91 05 02 	lds	r24, 0x0205
    1296:	88 23       	and	r24, r24
    1298:	29 f0       	breq	.+10     	; 0x12a4 <_Z5checkv+0x550>
    129a:	08 cf       	rjmp	.-496    	; 0x10ac <_Z5checkv+0x358>
			controls.startHeater();
			heaterCount = heaterOnTime;
			heatOn = true;
			timerHeater.startCustomTimer(1000);
		}
	} else if(bit_is_clear(RESET_BUTTON_PORT, RESET_BUTTON_PIN)){
    129c:	80 91 06 01 	lds	r24, 0x0106
    12a0:	81 ff       	sbrs	r24, 1
    12a2:	46 cf       	rjmp	.-372    	; 0x1130 <_Z5checkv+0x3dc>
		pressed_restart_system = false;
	}
}
    12a4:	cf 91       	pop	r28
    12a6:	ff 90       	pop	r15
    12a8:	ef 90       	pop	r14
    12aa:	df 90       	pop	r13
    12ac:	cf 90       	pop	r12
    12ae:	08 95       	ret

000012b0 <_Z11update_timev>:

void update_time() {
	if(second_lapsed) {
    12b0:	80 91 e1 02 	lds	r24, 0x02E1
    12b4:	88 23       	and	r24, r24
    12b6:	09 f4       	brne	.+2      	; 0x12ba <_Z11update_timev+0xa>
    12b8:	49 c0       	rjmp	.+146    	; 0x134c <_Z11update_timev+0x9c>
		second_lapsed = false;
    12ba:	10 92 e1 02 	sts	0x02E1, r1
		second--;
    12be:	80 91 08 02 	lds	r24, 0x0208
    12c2:	90 91 09 02 	lds	r25, 0x0209
    12c6:	01 97       	sbiw	r24, 0x01	; 1
    12c8:	90 93 09 02 	sts	0x0209, r25
    12cc:	80 93 08 02 	sts	0x0208, r24
		if(second < 0) {
    12d0:	80 91 08 02 	lds	r24, 0x0208
    12d4:	90 91 09 02 	lds	r25, 0x0209
    12d8:	99 23       	and	r25, r25
    12da:	c4 f5       	brge	.+112    	; 0x134c <_Z11update_timev+0x9c>
			minute--;
    12dc:	80 91 06 02 	lds	r24, 0x0206
    12e0:	90 91 07 02 	lds	r25, 0x0207
    12e4:	01 97       	sbiw	r24, 0x01	; 1
    12e6:	90 93 07 02 	sts	0x0207, r25
    12ea:	80 93 06 02 	sts	0x0206, r24
			second = 59;
    12ee:	8b e3       	ldi	r24, 0x3B	; 59
    12f0:	90 e0       	ldi	r25, 0x00	; 0
    12f2:	90 93 09 02 	sts	0x0209, r25
    12f6:	80 93 08 02 	sts	0x0208, r24
			if(minute < 0) {
    12fa:	80 91 06 02 	lds	r24, 0x0206
    12fe:	90 91 07 02 	lds	r25, 0x0207
    1302:	99 23       	and	r25, r25
    1304:	1c f5       	brge	.+70     	; 0x134c <_Z11update_timev+0x9c>
				hour--;
    1306:	80 91 fb 02 	lds	r24, 0x02FB
    130a:	90 91 fc 02 	lds	r25, 0x02FC
    130e:	01 97       	sbiw	r24, 0x01	; 1
    1310:	90 93 fc 02 	sts	0x02FC, r25
    1314:	80 93 fb 02 	sts	0x02FB, r24
				minute = 59;
    1318:	8b e3       	ldi	r24, 0x3B	; 59
    131a:	90 e0       	ldi	r25, 0x00	; 0
    131c:	90 93 07 02 	sts	0x0207, r25
    1320:	80 93 06 02 	sts	0x0206, r24
				if(hour < 0) {
    1324:	80 91 fb 02 	lds	r24, 0x02FB
    1328:	90 91 fc 02 	lds	r25, 0x02FC
    132c:	99 23       	and	r25, r25
    132e:	74 f4       	brge	.+28     	; 0x134c <_Z11update_timev+0x9c>
					second = 0;
    1330:	10 92 09 02 	sts	0x0209, r1
    1334:	10 92 08 02 	sts	0x0208, r1
					minute = 0;
    1338:	10 92 07 02 	sts	0x0207, r1
    133c:	10 92 06 02 	sts	0x0206, r1
					hour = 0;
    1340:	10 92 fc 02 	sts	0x02FC, r1
    1344:	10 92 fb 02 	sts	0x02FB, r1
					timer_state = false;
    1348:	10 92 e9 02 	sts	0x02E9, r1
    134c:	08 95       	ret

0000134e <_Z22calculateHeaterOffTimef>:
			}
		}
	}
}

float calculateHeaterOffTime (float airTemp) {
    134e:	cf 92       	push	r12
    1350:	df 92       	push	r13
    1352:	ef 92       	push	r14
    1354:	ff 92       	push	r15
    1356:	0f 93       	push	r16
    1358:	1f 93       	push	r17
    135a:	cf 93       	push	r28
    135c:	df 93       	push	r29
    135e:	6b 01       	movw	r12, r22
    1360:	7c 01       	movw	r14, r24
	float kp = 0.5;
	float heaterOffTimePID = heaterOffTimeMax - ((optimumTemp - airTemp) * kp);
    1362:	60 91 01 02 	lds	r22, 0x0201
    1366:	70 91 02 02 	lds	r23, 0x0202
    136a:	88 27       	eor	r24, r24
    136c:	77 fd       	sbrc	r23, 7
    136e:	80 95       	com	r24
    1370:	98 2f       	mov	r25, r24
    1372:	9d d5       	rcall	.+2874   	; 0x1eae <__floatsisf>
    1374:	a7 01       	movw	r20, r14
    1376:	96 01       	movw	r18, r12
    1378:	96 d4       	rcall	.+2348   	; 0x1ca6 <__subsf3>
    137a:	20 e0       	ldi	r18, 0x00	; 0
    137c:	30 e0       	ldi	r19, 0x00	; 0
    137e:	40 e0       	ldi	r20, 0x00	; 0
    1380:	5f e3       	ldi	r21, 0x3F	; 63
    1382:	49 d6       	rcall	.+3218   	; 0x2016 <__mulsf3>
    1384:	9b 01       	movw	r18, r22
    1386:	ac 01       	movw	r20, r24
    1388:	60 e0       	ldi	r22, 0x00	; 0
    138a:	70 e0       	ldi	r23, 0x00	; 0
    138c:	80 e4       	ldi	r24, 0x40	; 64
    138e:	91 e4       	ldi	r25, 0x41	; 65
    1390:	8a d4       	rcall	.+2324   	; 0x1ca6 <__subsf3>
    1392:	c6 2e       	mov	r12, r22
    1394:	d7 2e       	mov	r13, r23
    1396:	e8 2e       	mov	r14, r24
    1398:	f9 2e       	mov	r15, r25
    139a:	06 2f       	mov	r16, r22
    139c:	17 2f       	mov	r17, r23
    139e:	d8 2f       	mov	r29, r24
    13a0:	c9 2f       	mov	r28, r25
	if(heaterOffTimePID > heaterOffTimeMax) {
    13a2:	20 e0       	ldi	r18, 0x00	; 0
    13a4:	30 e0       	ldi	r19, 0x00	; 0
    13a6:	40 e4       	ldi	r20, 0x40	; 64
    13a8:	51 e4       	ldi	r21, 0x41	; 65
    13aa:	31 d6       	rcall	.+3170   	; 0x200e <__gesf2>
    13ac:	18 16       	cp	r1, r24
    13ae:	64 f0       	brlt	.+24     	; 0x13c8 <_Z22calculateHeaterOffTimef+0x7a>
		heaterOffTimePID = heaterOffTimeMax;
	} else if( heaterOffTimePID < heaterOffTimeMin) {
    13b0:	20 e0       	ldi	r18, 0x00	; 0
    13b2:	30 e0       	ldi	r19, 0x00	; 0
    13b4:	40 e0       	ldi	r20, 0x00	; 0
    13b6:	50 e4       	ldi	r21, 0x40	; 64
    13b8:	6c 2d       	mov	r22, r12
    13ba:	7d 2d       	mov	r23, r13
    13bc:	8e 2d       	mov	r24, r14
    13be:	9f 2d       	mov	r25, r15
    13c0:	d7 d4       	rcall	.+2478   	; 0x1d70 <__cmpsf2>
    13c2:	88 23       	and	r24, r24
    13c4:	34 f0       	brlt	.+12     	; 0x13d2 <_Z22calculateHeaterOffTimef+0x84>
    13c6:	09 c0       	rjmp	.+18     	; 0x13da <_Z22calculateHeaterOffTimef+0x8c>

float calculateHeaterOffTime (float airTemp) {
	float kp = 0.5;
	float heaterOffTimePID = heaterOffTimeMax - ((optimumTemp - airTemp) * kp);
	if(heaterOffTimePID > heaterOffTimeMax) {
		heaterOffTimePID = heaterOffTimeMax;
    13c8:	00 e0       	ldi	r16, 0x00	; 0
    13ca:	10 e0       	ldi	r17, 0x00	; 0
    13cc:	d0 e4       	ldi	r29, 0x40	; 64
    13ce:	c1 e4       	ldi	r28, 0x41	; 65
    13d0:	04 c0       	rjmp	.+8      	; 0x13da <_Z22calculateHeaterOffTimef+0x8c>
	} else if( heaterOffTimePID < heaterOffTimeMin) {
		heaterOffTimePID = heaterOffTimeMin;
    13d2:	00 e0       	ldi	r16, 0x00	; 0
    13d4:	10 e0       	ldi	r17, 0x00	; 0
    13d6:	d0 e0       	ldi	r29, 0x00	; 0
    13d8:	c0 e4       	ldi	r28, 0x40	; 64
	}
	return heaterOffTimePID;
	
}
    13da:	60 2f       	mov	r22, r16
    13dc:	71 2f       	mov	r23, r17
    13de:	8d 2f       	mov	r24, r29
    13e0:	9c 2f       	mov	r25, r28
    13e2:	df 91       	pop	r29
    13e4:	cf 91       	pop	r28
    13e6:	1f 91       	pop	r17
    13e8:	0f 91       	pop	r16
    13ea:	ff 90       	pop	r15
    13ec:	ef 90       	pop	r14
    13ee:	df 90       	pop	r13
    13f0:	cf 90       	pop	r12
    13f2:	08 95       	ret

000013f4 <_Z7Requestv>:

void Request()				/* Microcontroller send start pulse/request */
{
	DDRF |= (1<<DHT11_PIN);
    13f4:	84 9a       	sbi	0x10, 4	; 16
	PORTF &= ~(1<<DHT11_PIN);	/* set to low pin */
    13f6:	8c 98       	cbi	0x11, 4	; 17
	#else
		//round up by default
		__ticks_dc = (uint32_t)(ceil(fabs(__tmp)));
	#endif

	__builtin_avr_delay_cycles(__ticks_dc);
    13f8:	8f e1       	ldi	r24, 0x1F	; 31
    13fa:	9e e4       	ldi	r25, 0x4E	; 78
    13fc:	01 97       	sbiw	r24, 0x01	; 1
    13fe:	f1 f7       	brne	.-4      	; 0x13fc <_Z7Requestv+0x8>
    1400:	00 c0       	rjmp	.+0      	; 0x1402 <_Z7Requestv+0xe>
    1402:	00 00       	nop
	_delay_ms(5);			/* wait for 20ms */
	PORTF |= (1<<DHT11_PIN);	/* set to high pin */
    1404:	8c 9a       	sbi	0x11, 4	; 17
    1406:	08 95       	ret

00001408 <_Z8Responsev>:
}

void Response()				/* receive response from DHT11 */
{
	int count = 0;
	DDRF &= ~(1<<DHT11_PIN);
    1408:	84 98       	cbi	0x10, 4	; 16
	while(PINF & (1<<DHT11_PIN)){
    140a:	86 e5       	ldi	r24, 0x56	; 86
    140c:	90 e0       	ldi	r25, 0x00	; 0
    140e:	06 c0       	rjmp	.+12     	; 0x141c <_Z8Responsev+0x14>
	#else
		//round up by default
		__ticks_dc = (uint32_t)(ceil(fabs(__tmp)));
	#endif

	__builtin_avr_delay_cycles(__ticks_dc);
    1410:	25 e0       	ldi	r18, 0x05	; 5
    1412:	2a 95       	dec	r18
    1414:	f1 f7       	brne	.-4      	; 0x1412 <_Z8Responsev+0xa>
    1416:	00 00       	nop
    1418:	01 97       	sbiw	r24, 0x01	; 1
		count++;
		_delay_us(1);
		if(count> 85)
    141a:	51 f0       	breq	.+20     	; 0x1430 <_Z8Responsev+0x28>

void Response()				/* receive response from DHT11 */
{
	int count = 0;
	DDRF &= ~(1<<DHT11_PIN);
	while(PINF & (1<<DHT11_PIN)){
    141c:	7c 99       	sbic	0x0f, 4	; 15
    141e:	f8 cf       	rjmp	.-16     	; 0x1410 <_Z8Responsev+0x8>
    1420:	07 c0       	rjmp	.+14     	; 0x1430 <_Z8Responsev+0x28>
    1422:	25 e0       	ldi	r18, 0x05	; 5
    1424:	2a 95       	dec	r18
    1426:	f1 f7       	brne	.-4      	; 0x1424 <_Z8Responsev+0x1c>
    1428:	00 00       	nop
    142a:	01 97       	sbiw	r24, 0x01	; 1
	}
	count = 0;
	while((PINF & (1<<DHT11_PIN))==0) {
		count++;
		_delay_us(1);
		if(count> 85)
    142c:	19 f4       	brne	.+6      	; 0x1434 <_Z8Responsev+0x2c>
    142e:	0c c0       	rjmp	.+24     	; 0x1448 <_Z8Responsev+0x40>

void Response()				/* receive response from DHT11 */
{
	int count = 0;
	DDRF &= ~(1<<DHT11_PIN);
	while(PINF & (1<<DHT11_PIN)){
    1430:	86 e5       	ldi	r24, 0x56	; 86
    1432:	90 e0       	ldi	r25, 0x00	; 0
		_delay_us(1);
		if(count> 85)
		break;
	}
	count = 0;
	while((PINF & (1<<DHT11_PIN))==0) {
    1434:	7c 9b       	sbis	0x0f, 4	; 15
    1436:	f5 cf       	rjmp	.-22     	; 0x1422 <_Z8Responsev+0x1a>
    1438:	07 c0       	rjmp	.+14     	; 0x1448 <_Z8Responsev+0x40>
    143a:	25 e0       	ldi	r18, 0x05	; 5
    143c:	2a 95       	dec	r18
    143e:	f1 f7       	brne	.-4      	; 0x143c <_Z8Responsev+0x34>
    1440:	00 00       	nop
    1442:	01 97       	sbiw	r24, 0x01	; 1
	}
	count = 0;
	while(PINF & (1<<DHT11_PIN)) {
		count++;
		_delay_us(1);
		if(count> 85)
    1444:	19 f4       	brne	.+6      	; 0x144c <_Z8Responsev+0x44>
    1446:	08 95       	ret

void Response()				/* receive response from DHT11 */
{
	int count = 0;
	DDRF &= ~(1<<DHT11_PIN);
	while(PINF & (1<<DHT11_PIN)){
    1448:	86 e5       	ldi	r24, 0x56	; 86
    144a:	90 e0       	ldi	r25, 0x00	; 0
		_delay_us(1);
		if(count> 85)
		break;
	}
	count = 0;
	while(PINF & (1<<DHT11_PIN)) {
    144c:	7c 99       	sbic	0x0f, 4	; 15
    144e:	f5 cf       	rjmp	.-22     	; 0x143a <_Z8Responsev+0x32>
    1450:	08 95       	ret

00001452 <_Z12Receive_datav>:
		break;
	}
}

uint8_t Receive_data()			/* receive data */
{
    1452:	28 e0       	ldi	r18, 0x08	; 8
    1454:	30 e0       	ldi	r19, 0x00	; 0
    1456:	07 c0       	rjmp	.+14     	; 0x1466 <_Z12Receive_datav+0x14>
    1458:	45 e0       	ldi	r20, 0x05	; 5
    145a:	4a 95       	dec	r20
    145c:	f1 f7       	brne	.-4      	; 0x145a <_Z12Receive_datav+0x8>
    145e:	00 00       	nop
    1460:	01 97       	sbiw	r24, 0x01	; 1
		int count = 0;
		while((PINF & (1<<DHT11_PIN)) == 0)  /* check received bit 0 or 1 */
		{
			count++;
			_delay_us(1);
			if(count > 55)
    1462:	19 f4       	brne	.+6      	; 0x146a <_Z12Receive_datav+0x18>
    1464:	29 c0       	rjmp	.+82     	; 0x14b8 <_Z12Receive_datav+0x66>
		break;
	}
}

uint8_t Receive_data()			/* receive data */
{
    1466:	88 e3       	ldi	r24, 0x38	; 56
    1468:	90 e0       	ldi	r25, 0x00	; 0
	for (int q=0; q<8; q++)
	{
		int count = 0;
		while((PINF & (1<<DHT11_PIN)) == 0)  /* check received bit 0 or 1 */
    146a:	7c 9b       	sbis	0x0f, 4	; 15
    146c:	f5 cf       	rjmp	.-22     	; 0x1458 <_Z12Receive_datav+0x6>
    146e:	80 ea       	ldi	r24, 0xA0	; 160
    1470:	8a 95       	dec	r24
    1472:	f1 f7       	brne	.-4      	; 0x1470 <_Z12Receive_datav+0x1e>
			_delay_us(1);
			if(count > 55)
			return 0;
		}
		_delay_us(30);
		if(PINF & (1<<DHT11_PIN))/* if high pulse is greater than 30us */
    1474:	7c 9b       	sbis	0x0f, 4	; 15
    1476:	09 c0       	rjmp	.+18     	; 0x148a <_Z12Receive_datav+0x38>
		c = (c<<1)|(0x01);	/* then its logic HIGH */
    1478:	80 91 c7 02 	lds	r24, 0x02C7
    147c:	90 e0       	ldi	r25, 0x00	; 0
    147e:	88 0f       	add	r24, r24
    1480:	99 1f       	adc	r25, r25
    1482:	81 60       	ori	r24, 0x01	; 1
    1484:	80 93 c7 02 	sts	0x02C7, r24
    1488:	0d c0       	rjmp	.+26     	; 0x14a4 <_Z12Receive_datav+0x52>
		else			/* otherwise its logic LOW */
		c = (c<<1);
    148a:	80 91 c7 02 	lds	r24, 0x02C7
    148e:	88 0f       	add	r24, r24
    1490:	80 93 c7 02 	sts	0x02C7, r24
    1494:	07 c0       	rjmp	.+14     	; 0x14a4 <_Z12Receive_datav+0x52>
    1496:	45 e0       	ldi	r20, 0x05	; 5
    1498:	4a 95       	dec	r20
    149a:	f1 f7       	brne	.-4      	; 0x1498 <_Z12Receive_datav+0x46>
    149c:	00 00       	nop
    149e:	01 97       	sbiw	r24, 0x01	; 1
		count = 0;
		while(PINF & (1<<DHT11_PIN)){
			count++;
			_delay_us(1);
			if(count > 45)
    14a0:	19 f4       	brne	.+6      	; 0x14a8 <_Z12Receive_datav+0x56>
    14a2:	0c c0       	rjmp	.+24     	; 0x14bc <_Z12Receive_datav+0x6a>
		break;
	}
}

uint8_t Receive_data()			/* receive data */
{
    14a4:	8e e2       	ldi	r24, 0x2E	; 46
    14a6:	90 e0       	ldi	r25, 0x00	; 0
		if(PINF & (1<<DHT11_PIN))/* if high pulse is greater than 30us */
		c = (c<<1)|(0x01);	/* then its logic HIGH */
		else			/* otherwise its logic LOW */
		c = (c<<1);
		count = 0;
		while(PINF & (1<<DHT11_PIN)){
    14a8:	7c 99       	sbic	0x0f, 4	; 15
    14aa:	f5 cf       	rjmp	.-22     	; 0x1496 <_Z12Receive_datav+0x44>
    14ac:	21 50       	subi	r18, 0x01	; 1
    14ae:	31 09       	sbc	r19, r1
	}
}

uint8_t Receive_data()			/* receive data */
{
	for (int q=0; q<8; q++)
    14b0:	d1 f6       	brne	.-76     	; 0x1466 <_Z12Receive_datav+0x14>
			_delay_us(1);
			if(count > 45)
			return 0;
		}
	}
	return c;
    14b2:	80 91 c7 02 	lds	r24, 0x02C7
    14b6:	08 95       	ret
		while((PINF & (1<<DHT11_PIN)) == 0)  /* check received bit 0 or 1 */
		{
			count++;
			_delay_us(1);
			if(count > 55)
			return 0;
    14b8:	80 e0       	ldi	r24, 0x00	; 0
    14ba:	08 95       	ret
		count = 0;
		while(PINF & (1<<DHT11_PIN)){
			count++;
			_delay_us(1);
			if(count > 45)
			return 0;
    14bc:	80 e0       	ldi	r24, 0x00	; 0
		}
	}
	return c;
}
    14be:	08 95       	ret

000014c0 <_Z13readTempHumidRfS_>:

void readTempHumid(float &temper, float &humid) {
    14c0:	cf 92       	push	r12
    14c2:	df 92       	push	r13
    14c4:	ef 92       	push	r14
    14c6:	ff 92       	push	r15
    14c8:	0f 93       	push	r16
    14ca:	1f 93       	push	r17
    14cc:	cf 93       	push	r28
    14ce:	df 93       	push	r29
    14d0:	7c 01       	movw	r14, r24
    14d2:	eb 01       	movw	r28, r22
	Request();		/* send start pulse */
    14d4:	8f df       	rcall	.-226    	; 0x13f4 <_Z7Requestv>
	Response();		/* receive response */
    14d6:	98 df       	rcall	.-208    	; 0x1408 <_Z8Responsev>
	I_RH=Receive_data();	/* store first eight bit in I_RH */
    14d8:	bc df       	rcall	.-136    	; 0x1452 <_Z12Receive_datav>
    14da:	80 93 c6 02 	sts	0x02C6, r24
	D_RH=Receive_data();	/* store next eight bit in D_RH */
    14de:	b9 df       	rcall	.-142    	; 0x1452 <_Z12Receive_datav>
    14e0:	80 93 c5 02 	sts	0x02C5, r24
	I_Temp=Receive_data();	/* store next eight bit in I_Temp */
    14e4:	b6 df       	rcall	.-148    	; 0x1452 <_Z12Receive_datav>
    14e6:	80 93 c4 02 	sts	0x02C4, r24
	D_Temp=Receive_data();	/* store next eight bit in D_Temp */
    14ea:	b3 df       	rcall	.-154    	; 0x1452 <_Z12Receive_datav>
    14ec:	80 93 c3 02 	sts	0x02C3, r24
	CheckSum=Receive_data();/* store next eight bit in CheckSum */
    14f0:	b0 df       	rcall	.-160    	; 0x1452 <_Z12Receive_datav>
    14f2:	80 93 c2 02 	sts	0x02C2, r24
	
	uint16_t temp16 = 0;
	uint16_t humidity16 = 0;
	_8bitTo16bit(temp16, I_Temp, D_Temp);
    14f6:	20 91 c3 02 	lds	r18, 0x02C3
    14fa:	30 e0       	ldi	r19, 0x00	; 0
    14fc:	40 91 c4 02 	lds	r20, 0x02C4
    1500:	50 e0       	ldi	r21, 0x00	; 0
    1502:	d4 2e       	mov	r13, r20
    1504:	cc 24       	eor	r12, r12
    1506:	c2 2a       	or	r12, r18
    1508:	d3 2a       	or	r13, r19
	_8bitTo16bit(humidity16, I_RH, D_RH);
    150a:	e0 91 c5 02 	lds	r30, 0x02C5
    150e:	f0 e0       	ldi	r31, 0x00	; 0
    1510:	a0 91 c6 02 	lds	r26, 0x02C6
    1514:	b0 e0       	ldi	r27, 0x00	; 0
    1516:	1a 2f       	mov	r17, r26
    1518:	00 27       	eor	r16, r16
    151a:	0e 2b       	or	r16, r30
    151c:	1f 2b       	or	r17, r31
	if ((I_RH + D_RH + I_Temp + D_Temp) != CheckSum)
    151e:	ea 0f       	add	r30, r26
    1520:	fb 1f       	adc	r31, r27
    1522:	4e 0f       	add	r20, r30
    1524:	5f 1f       	adc	r21, r31
    1526:	24 0f       	add	r18, r20
    1528:	35 1f       	adc	r19, r21
    152a:	90 e0       	ldi	r25, 0x00	; 0
    152c:	28 17       	cp	r18, r24
    152e:	39 07       	cpc	r19, r25
    1530:	59 f0       	breq	.+22     	; 0x1548 <_Z13readTempHumidRfS_+0x88>
	{
		Printf(4, "Not okay");
    1532:	87 e8       	ldi	r24, 0x87	; 135
    1534:	92 e0       	ldi	r25, 0x02	; 2
    1536:	9f 93       	push	r25
    1538:	8f 93       	push	r24
    153a:	84 e0       	ldi	r24, 0x04	; 4
    153c:	8f 93       	push	r24
    153e:	0e 94 db 01 	call	0x3b6	; 0x3b6 <_Z6PrintfhPcz>
    1542:	0f 90       	pop	r0
    1544:	0f 90       	pop	r0
    1546:	0f 90       	pop	r0
		} else {
		//Printf(4, "Yes Okay");
	}
	temper = temp16 / 10.0;
    1548:	b6 01       	movw	r22, r12
    154a:	80 e0       	ldi	r24, 0x00	; 0
    154c:	90 e0       	ldi	r25, 0x00	; 0
    154e:	ad d4       	rcall	.+2394   	; 0x1eaa <__floatunsisf>
    1550:	20 e0       	ldi	r18, 0x00	; 0
    1552:	30 e0       	ldi	r19, 0x00	; 0
    1554:	40 e2       	ldi	r20, 0x20	; 32
    1556:	51 e4       	ldi	r21, 0x41	; 65
    1558:	0f d4       	rcall	.+2078   	; 0x1d78 <__divsf3>
    155a:	f7 01       	movw	r30, r14
    155c:	60 83       	st	Z, r22
    155e:	71 83       	std	Z+1, r23	; 0x01
    1560:	82 83       	std	Z+2, r24	; 0x02
    1562:	93 83       	std	Z+3, r25	; 0x03
	humid = humidity16 / 10.0; 
    1564:	b8 01       	movw	r22, r16
    1566:	80 e0       	ldi	r24, 0x00	; 0
    1568:	90 e0       	ldi	r25, 0x00	; 0
    156a:	9f d4       	rcall	.+2366   	; 0x1eaa <__floatunsisf>
    156c:	20 e0       	ldi	r18, 0x00	; 0
    156e:	30 e0       	ldi	r19, 0x00	; 0
    1570:	40 e2       	ldi	r20, 0x20	; 32
    1572:	51 e4       	ldi	r21, 0x41	; 65
    1574:	01 d4       	rcall	.+2050   	; 0x1d78 <__divsf3>
    1576:	68 83       	st	Y, r22
    1578:	79 83       	std	Y+1, r23	; 0x01
    157a:	8a 83       	std	Y+2, r24	; 0x02
    157c:	9b 83       	std	Y+3, r25	; 0x03
    157e:	df 91       	pop	r29
    1580:	cf 91       	pop	r28
    1582:	1f 91       	pop	r17
    1584:	0f 91       	pop	r16
    1586:	ff 90       	pop	r15
    1588:	ef 90       	pop	r14
    158a:	df 90       	pop	r13
    158c:	cf 90       	pop	r12
    158e:	08 95       	ret

00001590 <main>:
Controls controls;

Timerr tempTimer;
int main(void)
{
	sei();
    1590:	78 94       	sei
	init_devices();
    1592:	3f d9       	rcall	.-3458   	; 0x812 <_Z12init_devicesv>
	leds.led_do(HEATER_ON_LED, ON);
	*/
	
	
	
	Printf(1,"TA:%fC   TS:%fC",air_temp,skin_temp);
    1594:	80 91 d0 02 	lds	r24, 0x02D0
    1598:	8f 93       	push	r24
    159a:	80 91 cf 02 	lds	r24, 0x02CF
    159e:	8f 93       	push	r24
    15a0:	80 91 ce 02 	lds	r24, 0x02CE
    15a4:	8f 93       	push	r24
    15a6:	80 91 cd 02 	lds	r24, 0x02CD
    15aa:	8f 93       	push	r24
    15ac:	80 91 d4 02 	lds	r24, 0x02D4
    15b0:	8f 93       	push	r24
    15b2:	80 91 d3 02 	lds	r24, 0x02D3
    15b6:	8f 93       	push	r24
    15b8:	80 91 d2 02 	lds	r24, 0x02D2
    15bc:	8f 93       	push	r24
    15be:	80 91 d1 02 	lds	r24, 0x02D1
    15c2:	8f 93       	push	r24
    15c4:	80 e9       	ldi	r24, 0x90	; 144
    15c6:	92 e0       	ldi	r25, 0x02	; 2
    15c8:	9f 93       	push	r25
    15ca:	8f 93       	push	r24
    15cc:	81 e0       	ldi	r24, 0x01	; 1
    15ce:	8f 93       	push	r24
    15d0:	0e 94 db 01 	call	0x3b6	; 0x3b6 <_Z6PrintfhPcz>
	Printf(2,"RH:%f%",humidity);
    15d4:	80 91 dc 02 	lds	r24, 0x02DC
    15d8:	8f 93       	push	r24
    15da:	80 91 db 02 	lds	r24, 0x02DB
    15de:	8f 93       	push	r24
    15e0:	80 91 da 02 	lds	r24, 0x02DA
    15e4:	8f 93       	push	r24
    15e6:	80 91 d9 02 	lds	r24, 0x02D9
    15ea:	8f 93       	push	r24
    15ec:	86 ea       	ldi	r24, 0xA6	; 166
    15ee:	92 e0       	ldi	r25, 0x02	; 2
    15f0:	9f 93       	push	r25
    15f2:	8f 93       	push	r24
    15f4:	82 e0       	ldi	r24, 0x02	; 2
    15f6:	8f 93       	push	r24
    15f8:	0e 94 db 01 	call	0x3b6	; 0x3b6 <_Z6PrintfhPcz>
	Printf(3,"00:00:00");
    15fc:	86 e1       	ldi	r24, 0x16	; 22
    15fe:	92 e0       	ldi	r25, 0x02	; 2
    1600:	9f 93       	push	r25
    1602:	8f 93       	push	r24
    1604:	83 e0       	ldi	r24, 0x03	; 3
    1606:	8f 93       	push	r24
    1608:	0e 94 db 01 	call	0x3b6	; 0x3b6 <_Z6PrintfhPcz>
    160c:	8d b7       	in	r24, 0x3d	; 61
    160e:	9e b7       	in	r25, 0x3e	; 62
    1610:	45 96       	adiw	r24, 0x15	; 21
    1612:	0f b6       	in	r0, 0x3f	; 63
    1614:	f8 94       	cli
    1616:	9e bf       	out	0x3e, r25	; 62
    1618:	0f be       	out	0x3f, r0	; 63
    161a:	8d bf       	out	0x3d, r24	; 61
			int adc2 = adc_read(LM35_1);
			air_temp = ((adc2 / 1024.0) * 5) * 100;
			
			int adc1 = adc_read(LM35_2);
			skin_temp = ((adc1 / 1024.0)*5) * 100; //10mv per degree celsius
			Printf(2, "T:%fC RH:%f%",temperature, humidity);
    161c:	00 ea       	ldi	r16, 0xA0	; 160
    161e:	12 e0       	ldi	r17, 0x02	; 2
    1620:	68 94       	set
    1622:	22 24       	eor	r2, r2
    1624:	21 f8       	bld	r2, 1
			
			lcd_gotoxy(3,0);
			Printf(5,"%fC",air_temp);
    1626:	cc e9       	ldi	r28, 0x9C	; 156
    1628:	d2 e0       	ldi	r29, 0x02	; 2
    162a:	0f 2e       	mov	r0, r31
    162c:	f5 e0       	ldi	r31, 0x05	; 5
    162e:	3f 2e       	mov	r3, r31
    1630:	f0 2d       	mov	r31, r0
					heaterOnTime = 20;
				}
				if(heaterCount <= 0 && heatOn) {
					heaterCount = calculateHeaterOffTime(temperature);
					//lcd_gotoxy(12,3);
					Printf(4, "Off time: %d", heaterCount);
    1632:	0f 2e       	mov	r0, r31
    1634:	fd ea       	ldi	r31, 0xAD	; 173
    1636:	cf 2e       	mov	r12, r31
    1638:	f2 e0       	ldi	r31, 0x02	; 2
    163a:	df 2e       	mov	r13, r31
    163c:	f0 2d       	mov	r31, r0
				if(temperature > 34) {
					heaterOnTime = 10;
				} else if(temperature <30) {
					heaterOnTime = 60;
				} else {
					heaterOnTime = 20;
    163e:	0f 2e       	mov	r0, r31
    1640:	f4 e1       	ldi	r31, 0x14	; 20
    1642:	8f 2e       	mov	r8, r31
    1644:	91 2c       	mov	r9, r1
    1646:	f0 2d       	mov	r31, r0
				heaterCountUpdate = false;
				heaterCount--;
				if(temperature > 34) {
					heaterOnTime = 10;
				} else if(temperature <30) {
					heaterOnTime = 60;
    1648:	0f 2e       	mov	r0, r31
    164a:	fc e3       	ldi	r31, 0x3C	; 60
    164c:	af 2e       	mov	r10, r31
    164e:	b1 2c       	mov	r11, r1
    1650:	f0 2d       	mov	r31, r0
			update_time();
			if(heaterCountUpdate) {
				heaterCountUpdate = false;
				heaterCount--;
				if(temperature > 34) {
					heaterOnTime = 10;
    1652:	0f 2e       	mov	r0, r31
    1654:	fa e0       	ldi	r31, 0x0A	; 10
    1656:	ef 2e       	mov	r14, r31
    1658:	f1 2c       	mov	r15, r1
    165a:	f0 2d       	mov	r31, r0
	Printf(1,"TA:%fC   TS:%fC",air_temp,skin_temp);
	Printf(2,"RH:%f%",humidity);
	Printf(3,"00:00:00");
    while(1)
    {
		if(second_lapsed) {
    165c:	80 91 e1 02 	lds	r24, 0x02E1
    1660:	88 23       	and	r24, r24
    1662:	09 f4       	brne	.+2      	; 0x1666 <main+0xd6>
    1664:	92 c0       	rjmp	.+292    	; 0x178a <main+0x1fa>
			readTempHumid(temperature, humidity);
    1666:	69 ed       	ldi	r22, 0xD9	; 217
    1668:	72 e0       	ldi	r23, 0x02	; 2
    166a:	85 ed       	ldi	r24, 0xD5	; 213
    166c:	92 e0       	ldi	r25, 0x02	; 2
    166e:	28 df       	rcall	.-432    	; 0x14c0 <_Z13readTempHumidRfS_>
			
			int adc2 = adc_read(LM35_1);
    1670:	81 e0       	ldi	r24, 0x01	; 1
    1672:	b9 d8       	rcall	.-3726   	; 0x7e6 <_Z8adc_readh>
			air_temp = ((adc2 / 1024.0) * 5) * 100;
    1674:	bc 01       	movw	r22, r24
    1676:	88 27       	eor	r24, r24
    1678:	77 fd       	sbrc	r23, 7
    167a:	80 95       	com	r24
    167c:	98 2f       	mov	r25, r24
    167e:	17 d4       	rcall	.+2094   	; 0x1eae <__floatsisf>
    1680:	20 e0       	ldi	r18, 0x00	; 0
    1682:	30 e0       	ldi	r19, 0x00	; 0
    1684:	40 e8       	ldi	r20, 0x80	; 128
    1686:	5a e3       	ldi	r21, 0x3A	; 58
    1688:	c6 d4       	rcall	.+2444   	; 0x2016 <__mulsf3>
    168a:	20 e0       	ldi	r18, 0x00	; 0
    168c:	30 e0       	ldi	r19, 0x00	; 0
    168e:	40 ea       	ldi	r20, 0xA0	; 160
    1690:	50 e4       	ldi	r21, 0x40	; 64
    1692:	c1 d4       	rcall	.+2434   	; 0x2016 <__mulsf3>
    1694:	20 e0       	ldi	r18, 0x00	; 0
    1696:	30 e0       	ldi	r19, 0x00	; 0
    1698:	48 ec       	ldi	r20, 0xC8	; 200
    169a:	52 e4       	ldi	r21, 0x42	; 66
    169c:	bc d4       	rcall	.+2424   	; 0x2016 <__mulsf3>
    169e:	60 93 d1 02 	sts	0x02D1, r22
    16a2:	70 93 d2 02 	sts	0x02D2, r23
    16a6:	80 93 d3 02 	sts	0x02D3, r24
    16aa:	90 93 d4 02 	sts	0x02D4, r25
			
			int adc1 = adc_read(LM35_2);
    16ae:	83 e0       	ldi	r24, 0x03	; 3
    16b0:	9a d8       	rcall	.-3788   	; 0x7e6 <_Z8adc_readh>
			skin_temp = ((adc1 / 1024.0)*5) * 100; //10mv per degree celsius
    16b2:	bc 01       	movw	r22, r24
    16b4:	88 27       	eor	r24, r24
    16b6:	77 fd       	sbrc	r23, 7
    16b8:	80 95       	com	r24
    16ba:	98 2f       	mov	r25, r24
    16bc:	f8 d3       	rcall	.+2032   	; 0x1eae <__floatsisf>
    16be:	20 e0       	ldi	r18, 0x00	; 0
    16c0:	30 e0       	ldi	r19, 0x00	; 0
    16c2:	40 e8       	ldi	r20, 0x80	; 128
    16c4:	5a e3       	ldi	r21, 0x3A	; 58
    16c6:	a7 d4       	rcall	.+2382   	; 0x2016 <__mulsf3>
    16c8:	20 e0       	ldi	r18, 0x00	; 0
    16ca:	30 e0       	ldi	r19, 0x00	; 0
    16cc:	40 ea       	ldi	r20, 0xA0	; 160
    16ce:	50 e4       	ldi	r21, 0x40	; 64
    16d0:	a2 d4       	rcall	.+2372   	; 0x2016 <__mulsf3>
    16d2:	20 e0       	ldi	r18, 0x00	; 0
    16d4:	30 e0       	ldi	r19, 0x00	; 0
    16d6:	48 ec       	ldi	r20, 0xC8	; 200
    16d8:	52 e4       	ldi	r21, 0x42	; 66
    16da:	9d d4       	rcall	.+2362   	; 0x2016 <__mulsf3>
    16dc:	60 93 cd 02 	sts	0x02CD, r22
    16e0:	70 93 ce 02 	sts	0x02CE, r23
    16e4:	80 93 cf 02 	sts	0x02CF, r24
    16e8:	90 93 d0 02 	sts	0x02D0, r25
			Printf(2, "T:%fC RH:%f%",temperature, humidity);
    16ec:	80 91 dc 02 	lds	r24, 0x02DC
    16f0:	8f 93       	push	r24
    16f2:	80 91 db 02 	lds	r24, 0x02DB
    16f6:	8f 93       	push	r24
    16f8:	80 91 da 02 	lds	r24, 0x02DA
    16fc:	8f 93       	push	r24
    16fe:	80 91 d9 02 	lds	r24, 0x02D9
    1702:	8f 93       	push	r24
    1704:	80 91 d8 02 	lds	r24, 0x02D8
    1708:	8f 93       	push	r24
    170a:	80 91 d7 02 	lds	r24, 0x02D7
    170e:	8f 93       	push	r24
    1710:	80 91 d6 02 	lds	r24, 0x02D6
    1714:	8f 93       	push	r24
    1716:	80 91 d5 02 	lds	r24, 0x02D5
    171a:	8f 93       	push	r24
    171c:	1f 93       	push	r17
    171e:	0f 93       	push	r16
    1720:	2f 92       	push	r2
    1722:	0e 94 db 01 	call	0x3b6	; 0x3b6 <_Z6PrintfhPcz>
			
			lcd_gotoxy(3,0);
    1726:	60 e0       	ldi	r22, 0x00	; 0
    1728:	83 e0       	ldi	r24, 0x03	; 3
    172a:	0e 94 51 01 	call	0x2a2	; 0x2a2 <_Z10lcd_gotoxyhh>
			Printf(5,"%fC",air_temp);
    172e:	80 91 d4 02 	lds	r24, 0x02D4
    1732:	8f 93       	push	r24
    1734:	80 91 d3 02 	lds	r24, 0x02D3
    1738:	8f 93       	push	r24
    173a:	80 91 d2 02 	lds	r24, 0x02D2
    173e:	8f 93       	push	r24
    1740:	80 91 d1 02 	lds	r24, 0x02D1
    1744:	8f 93       	push	r24
    1746:	df 93       	push	r29
    1748:	cf 93       	push	r28
    174a:	3f 92       	push	r3
    174c:	0e 94 db 01 	call	0x3b6	; 0x3b6 <_Z6PrintfhPcz>
			lcd_gotoxy(13,0);
    1750:	60 e0       	ldi	r22, 0x00	; 0
    1752:	8d e0       	ldi	r24, 0x0D	; 13
    1754:	0e 94 51 01 	call	0x2a2	; 0x2a2 <_Z10lcd_gotoxyhh>
			Printf(5,"%fC",skin_temp);
    1758:	80 91 d0 02 	lds	r24, 0x02D0
    175c:	8f 93       	push	r24
    175e:	80 91 cf 02 	lds	r24, 0x02CF
    1762:	8f 93       	push	r24
    1764:	80 91 ce 02 	lds	r24, 0x02CE
    1768:	8f 93       	push	r24
    176a:	80 91 cd 02 	lds	r24, 0x02CD
    176e:	8f 93       	push	r24
    1770:	df 93       	push	r29
    1772:	cf 93       	push	r28
    1774:	3f 92       	push	r3
    1776:	0e 94 db 01 	call	0x3b6	; 0x3b6 <_Z6PrintfhPcz>
    177a:	8d b7       	in	r24, 0x3d	; 61
    177c:	9e b7       	in	r25, 0x3e	; 62
    177e:	49 96       	adiw	r24, 0x19	; 25
    1780:	0f b6       	in	r0, 0x3f	; 63
    1782:	f8 94       	cli
    1784:	9e bf       	out	0x3e, r25	; 62
    1786:	0f be       	out	0x3f, r0	; 63
    1788:	8d bf       	out	0x3d, r24	; 61
		}
		display();
    178a:	68 d8       	rcall	.-3888   	; 0x85c <_Z7displayv>
		check();
    178c:	e3 da       	rcall	.-2618   	; 0xd54 <_Z5checkv>
		
		/*For Led */
		int adc = adc_read(POT);
    178e:	80 e0       	ldi	r24, 0x00	; 0
    1790:	2a d8       	rcall	.-4012   	; 0x7e6 <_Z8adc_readh>
    1792:	bc 01       	movw	r22, r24
		
		if(incubator_running || photo_start) {
    1794:	80 91 e8 02 	lds	r24, 0x02E8
    1798:	81 11       	cpse	r24, r1
    179a:	05 c0       	rjmp	.+10     	; 0x17a6 <main+0x216>
    179c:	80 91 e7 02 	lds	r24, 0x02E7
    17a0:	88 23       	and	r24, r24
    17a2:	09 f4       	brne	.+2      	; 0x17a6 <main+0x216>
    17a4:	63 c0       	rjmp	.+198    	; 0x186c <main+0x2dc>
			int dutycycle = (adc/1024.0) * 100;
    17a6:	88 27       	eor	r24, r24
    17a8:	77 fd       	sbrc	r23, 7
    17aa:	80 95       	com	r24
    17ac:	98 2f       	mov	r25, r24
    17ae:	7f d3       	rcall	.+1790   	; 0x1eae <__floatsisf>
    17b0:	20 e0       	ldi	r18, 0x00	; 0
    17b2:	30 e0       	ldi	r19, 0x00	; 0
    17b4:	40 e8       	ldi	r20, 0x80	; 128
    17b6:	5a e3       	ldi	r21, 0x3A	; 58
    17b8:	2e d4       	rcall	.+2140   	; 0x2016 <__mulsf3>
    17ba:	20 e0       	ldi	r18, 0x00	; 0
    17bc:	30 e0       	ldi	r19, 0x00	; 0
    17be:	48 ec       	ldi	r20, 0xC8	; 200
    17c0:	52 e4       	ldi	r21, 0x42	; 66
    17c2:	29 d4       	rcall	.+2130   	; 0x2016 <__mulsf3>
    17c4:	41 d3       	rcall	.+1666   	; 0x1e48 <__fixsfsi>
			phototherapy.change_brightness(dutycycle);
    17c6:	8c eb       	ldi	r24, 0xBC	; 188
    17c8:	92 e0       	ldi	r25, 0x02	; 2
    17ca:	8c d1       	rcall	.+792    	; 0x1ae4 <_ZN12PhotoTherapy17change_brightnessEi>
		
		humidity = adc_read(HUMIDITY);
		*/
		
		
		if(incubator_running) {
    17cc:	80 91 e8 02 	lds	r24, 0x02E8
    17d0:	88 23       	and	r24, r24
    17d2:	09 f4       	brne	.+2      	; 0x17d6 <main+0x246>
    17d4:	4b c0       	rjmp	.+150    	; 0x186c <main+0x2dc>
			update_time();
    17d6:	6c dd       	rcall	.-1320   	; 0x12b0 <_Z11update_timev>
			if(heaterCountUpdate) {
    17d8:	80 91 c8 02 	lds	r24, 0x02C8
    17dc:	88 23       	and	r24, r24
    17de:	09 f4       	brne	.+2      	; 0x17e2 <main+0x252>
    17e0:	45 c0       	rjmp	.+138    	; 0x186c <main+0x2dc>
				heaterCountUpdate = false;
    17e2:	10 92 c8 02 	sts	0x02C8, r1
				heaterCount--;
    17e6:	80 91 c9 02 	lds	r24, 0x02C9
    17ea:	90 91 ca 02 	lds	r25, 0x02CA
    17ee:	01 97       	sbiw	r24, 0x01	; 1
    17f0:	90 93 ca 02 	sts	0x02CA, r25
    17f4:	80 93 c9 02 	sts	0x02C9, r24
				if(temperature > 34) {
    17f8:	40 90 d5 02 	lds	r4, 0x02D5
    17fc:	50 90 d6 02 	lds	r5, 0x02D6
    1800:	60 90 d7 02 	lds	r6, 0x02D7
    1804:	70 90 d8 02 	lds	r7, 0x02D8
    1808:	20 e0       	ldi	r18, 0x00	; 0
    180a:	30 e0       	ldi	r19, 0x00	; 0
    180c:	48 e0       	ldi	r20, 0x08	; 8
    180e:	52 e4       	ldi	r21, 0x42	; 66
    1810:	c3 01       	movw	r24, r6
    1812:	b2 01       	movw	r22, r4
    1814:	fc d3       	rcall	.+2040   	; 0x200e <__gesf2>
    1816:	18 16       	cp	r1, r24
    1818:	2c f4       	brge	.+10     	; 0x1824 <main+0x294>
					heaterOnTime = 10;
    181a:	f0 92 04 02 	sts	0x0204, r15
    181e:	e0 92 03 02 	sts	0x0203, r14
    1822:	12 c0       	rjmp	.+36     	; 0x1848 <main+0x2b8>
				} else if(temperature <30) {
    1824:	20 e0       	ldi	r18, 0x00	; 0
    1826:	30 e0       	ldi	r19, 0x00	; 0
    1828:	40 ef       	ldi	r20, 0xF0	; 240
    182a:	51 e4       	ldi	r21, 0x41	; 65
    182c:	c3 01       	movw	r24, r6
    182e:	b2 01       	movw	r22, r4
    1830:	9f d2       	rcall	.+1342   	; 0x1d70 <__cmpsf2>
    1832:	88 23       	and	r24, r24
    1834:	2c f4       	brge	.+10     	; 0x1840 <main+0x2b0>
					heaterOnTime = 60;
    1836:	b0 92 04 02 	sts	0x0204, r11
    183a:	a0 92 03 02 	sts	0x0203, r10
    183e:	04 c0       	rjmp	.+8      	; 0x1848 <main+0x2b8>
				} else {
					heaterOnTime = 20;
    1840:	90 92 04 02 	sts	0x0204, r9
    1844:	80 92 03 02 	sts	0x0203, r8
				}
				if(heaterCount <= 0 && heatOn) {
    1848:	80 91 c9 02 	lds	r24, 0x02C9
    184c:	90 91 ca 02 	lds	r25, 0x02CA
    1850:	18 16       	cp	r1, r24
    1852:	19 06       	cpc	r1, r25
    1854:	0c f4       	brge	.+2      	; 0x1858 <main+0x2c8>
    1856:	5f c0       	rjmp	.+190    	; 0x1916 <main+0x386>
    1858:	80 91 00 02 	lds	r24, 0x0200
    185c:	81 11       	cpse	r24, r1
    185e:	34 c0       	rjmp	.+104    	; 0x18c8 <main+0x338>
    1860:	5a c0       	rjmp	.+180    	; 0x1916 <main+0x386>
					//lcd_gotoxy(12,3);
					Printf(4, "Off time: %d", heaterCount);
					heatOn = false;
					controls.stopHeater();
					leds.led_do(HEATER_ON_LED, OFF);
				} else if(heaterCount <= 0 && !heatOn) {
    1862:	80 91 00 02 	lds	r24, 0x0200
    1866:	88 23       	and	r24, r24
    1868:	09 f4       	brne	.+2      	; 0x186c <main+0x2dc>
    186a:	5e c0       	rjmp	.+188    	; 0x1928 <main+0x398>
					leds.led_do(HEATER_ON_LED, ON);
				}
			}
		} 
		//display();
		if(keypad_enable) {
    186c:	80 91 e0 02 	lds	r24, 0x02E0
    1870:	88 23       	and	r24, r24
    1872:	09 f4       	brne	.+2      	; 0x1876 <main+0x2e6>
    1874:	f3 ce       	rjmp	.-538    	; 0x165c <main+0xcc>
			int key = get_key();
    1876:	0e 94 c0 03 	call	0x780	; 0x780 <_Z7get_keyv>
    187a:	28 2f       	mov	r18, r24
    187c:	39 2f       	mov	r19, r25
			if(key != last_key) {
    187e:	80 91 cb 02 	lds	r24, 0x02CB
    1882:	90 91 cc 02 	lds	r25, 0x02CC
    1886:	28 17       	cp	r18, r24
    1888:	39 07       	cpc	r19, r25
    188a:	09 f4       	brne	.+2      	; 0x188e <main+0x2fe>
    188c:	e7 ce       	rjmp	.-562    	; 0x165c <main+0xcc>
				last_key = key;
    188e:	30 93 cc 02 	sts	0x02CC, r19
    1892:	20 93 cb 02 	sts	0x02CB, r18
				switch(key) {
    1896:	33 23       	and	r19, r19
    1898:	0c f4       	brge	.+2      	; 0x189c <main+0x30c>
    189a:	e0 ce       	rjmp	.-576    	; 0x165c <main+0xcc>
    189c:	2a 30       	cpi	r18, 0x0A	; 10
    189e:	31 05       	cpc	r19, r1
    18a0:	5c f0       	brlt	.+22     	; 0x18b8 <main+0x328>
    18a2:	2d 30       	cpi	r18, 0x0D	; 13
    18a4:	31 05       	cpc	r19, r1
    18a6:	09 f0       	breq	.+2      	; 0x18aa <main+0x31a>
    18a8:	d9 ce       	rjmp	.-590    	; 0x165c <main+0xcc>
					case BUTTON_A:
						timer_set = !timer_set;
    18aa:	90 91 ea 02 	lds	r25, 0x02EA
    18ae:	81 e0       	ldi	r24, 0x01	; 1
    18b0:	89 27       	eor	r24, r25
    18b2:	80 93 ea 02 	sts	0x02EA, r24
						break;
    18b6:	d2 ce       	rjmp	.-604    	; 0x165c <main+0xcc>
					case BUTTON_7:
					case BUTTON_8:
					case BUTTON_9:
					case BUTTON_0:
						
						if(timer_set) {
    18b8:	80 91 ea 02 	lds	r24, 0x02EA
    18bc:	88 23       	and	r24, r24
    18be:	09 f4       	brne	.+2      	; 0x18c2 <main+0x332>
    18c0:	cd ce       	rjmp	.-614    	; 0x165c <main+0xcc>
							set(key);
    18c2:	c9 01       	movw	r24, r18
    18c4:	5f d9       	rcall	.-3394   	; 0xb84 <_Z3seti>
    18c6:	ca ce       	rjmp	.-620    	; 0x165c <main+0xcc>
					heaterOnTime = 60;
				} else {
					heaterOnTime = 20;
				}
				if(heaterCount <= 0 && heatOn) {
					heaterCount = calculateHeaterOffTime(temperature);
    18c8:	c3 01       	movw	r24, r6
    18ca:	b2 01       	movw	r22, r4
    18cc:	40 dd       	rcall	.-1408   	; 0x134e <_Z22calculateHeaterOffTimef>
    18ce:	bc d2       	rcall	.+1400   	; 0x1e48 <__fixsfsi>
    18d0:	70 93 ca 02 	sts	0x02CA, r23
    18d4:	60 93 c9 02 	sts	0x02C9, r22
					//lcd_gotoxy(12,3);
					Printf(4, "Off time: %d", heaterCount);
    18d8:	80 91 c9 02 	lds	r24, 0x02C9
    18dc:	90 91 ca 02 	lds	r25, 0x02CA
    18e0:	9f 93       	push	r25
    18e2:	8f 93       	push	r24
    18e4:	df 92       	push	r13
    18e6:	cf 92       	push	r12
    18e8:	94 e0       	ldi	r25, 0x04	; 4
    18ea:	9f 93       	push	r25
    18ec:	0e 94 db 01 	call	0x3b6	; 0x3b6 <_Z6PrintfhPcz>
					heatOn = false;
    18f0:	10 92 00 02 	sts	0x0200, r1
					controls.stopHeater();
    18f4:	8a eb       	ldi	r24, 0xBA	; 186
    18f6:	92 e0       	ldi	r25, 0x02	; 2
    18f8:	0e 94 cb 00 	call	0x196	; 0x196 <_ZN8Controls10stopHeaterEv>
					leds.led_do(HEATER_ON_LED, OFF);
    18fc:	40 e0       	ldi	r20, 0x00	; 0
    18fe:	50 e0       	ldi	r21, 0x00	; 0
    1900:	6c e0       	ldi	r22, 0x0C	; 12
    1902:	70 e0       	ldi	r23, 0x00	; 0
    1904:	8b eb       	ldi	r24, 0xBB	; 187
    1906:	92 e0       	ldi	r25, 0x02	; 2
    1908:	48 d0       	rcall	.+144    	; 0x199a <_ZN3led6led_doEii>
    190a:	0f 90       	pop	r0
    190c:	0f 90       	pop	r0
    190e:	0f 90       	pop	r0
    1910:	0f 90       	pop	r0
    1912:	0f 90       	pop	r0
    1914:	ab cf       	rjmp	.-170    	; 0x186c <main+0x2dc>
				} else if(heaterCount <= 0 && !heatOn) {
    1916:	80 91 c9 02 	lds	r24, 0x02C9
    191a:	90 91 ca 02 	lds	r25, 0x02CA
    191e:	18 16       	cp	r1, r24
    1920:	19 06       	cpc	r1, r25
    1922:	0c f4       	brge	.+2      	; 0x1926 <main+0x396>
    1924:	a3 cf       	rjmp	.-186    	; 0x186c <main+0x2dc>
    1926:	9d cf       	rjmp	.-198    	; 0x1862 <main+0x2d2>
					heaterCount = heaterOnTime;
    1928:	80 91 03 02 	lds	r24, 0x0203
    192c:	90 91 04 02 	lds	r25, 0x0204
    1930:	90 93 ca 02 	sts	0x02CA, r25
    1934:	80 93 c9 02 	sts	0x02C9, r24
					heatOn = true;
    1938:	81 e0       	ldi	r24, 0x01	; 1
    193a:	80 93 00 02 	sts	0x0200, r24
					controls.startHeater();
    193e:	8a eb       	ldi	r24, 0xBA	; 186
    1940:	92 e0       	ldi	r25, 0x02	; 2
    1942:	0e 94 c4 00 	call	0x188	; 0x188 <_ZN8Controls11startHeaterEv>
					leds.led_do(HEATER_ON_LED, ON);
    1946:	41 e0       	ldi	r20, 0x01	; 1
    1948:	50 e0       	ldi	r21, 0x00	; 0
    194a:	6c e0       	ldi	r22, 0x0C	; 12
    194c:	70 e0       	ldi	r23, 0x00	; 0
    194e:	8b eb       	ldi	r24, 0xBB	; 187
    1950:	92 e0       	ldi	r25, 0x02	; 2
    1952:	23 d0       	rcall	.+70     	; 0x199a <_ZN3led6led_doEii>
    1954:	8b cf       	rjmp	.-234    	; 0x186c <main+0x2dc>

00001956 <_GLOBAL__sub_I__Z7lcd_cmdh>:
int const heaterOffTimeMin = 2;
int const heaterOffTimeMax = 12; 

int optimumTemp = 35;

volatile int heaterCount = heaterOnTime;
    1956:	80 91 03 02 	lds	r24, 0x0203
    195a:	90 91 04 02 	lds	r25, 0x0204
    195e:	90 93 ca 02 	sts	0x02CA, r25
    1962:	80 93 c9 02 	sts	0x02C9, r24
#define F_CPU 16000000UL
#endif
#include <avr/io.h>
#include <avr/interrupt.h>

class PWM {
    1966:	10 92 bd 02 	sts	0x02BD, r1
    196a:	10 92 bc 02 	sts	0x02BC, r1
    196e:	08 95       	ret

00001970 <_ZN3led8led_initEv>:
#include <avr/io.h>

#define DDR(x) (*(&x - 1))      /* address of data direction register of port x */

void led::led_init() {
	DDR(TS_HIGH_PORT) |= (1 << TS_HIGH_PIN);
    1970:	ea e0       	ldi	r30, 0x0A	; 10
    1972:	f1 e0       	ldi	r31, 0x01	; 1
    1974:	80 81       	ld	r24, Z
    1976:	84 60       	ori	r24, 0x04	; 4
    1978:	80 83       	st	Z, r24
	DDR(TS_LOW_PORT) |= (1 << TS_LOW_PIN);
    197a:	80 81       	ld	r24, Z
    197c:	80 61       	ori	r24, 0x10	; 16
    197e:	80 83       	st	Z, r24
	DDR(RH_LOW_PORT) |= (1 << RH_LOW_PIN);	
    1980:	9a 9a       	sbi	0x13, 2	; 19
	DDR(TA_HIGH_PORT) |= (1 << TA_HIGH_PIN);
    1982:	98 9a       	sbi	0x13, 0	; 19
	DDR(TA_LOW_PORT) |= (1 << TA_LOW_PIN);
    1984:	80 81       	ld	r24, Z
    1986:	80 64       	ori	r24, 0x40	; 64
    1988:	80 83       	st	Z, r24
	DDR(TIMER_RUNNING_LED_PORT) |= (1 << TIMER_RUNNING_LED_PIN);
    198a:	0b 9a       	sbi	0x01, 3	; 1
	DDR(TIMER_STOP_LED_PORT) |= (1 << TIMER_STOP_LED_PIN);
    198c:	09 9a       	sbi	0x01, 1	; 1
	DDR(DOOR_CLOSED_LED_PORT) |= (1 << DOOR_CLOSED_LED_PIN);
    198e:	0d 9a       	sbi	0x01, 5	; 1
	DDR(KEYPAD_ENABLE_LED_PORT) |= (1 << KEYPAD_ENABLE_LED_PIN);
    1990:	38 9a       	sbi	0x07, 0	; 7
	DDR(SYSTEM_FAULT_LED_PORT) |= (1 << SYSTEM_FAULT_LED_PIN);
    1992:	3c 9a       	sbi	0x07, 4	; 7
	DDR(FAN_ON_LED_PORT) |= (1 << FAN_ON_LED_PIN);
    1994:	0f 9a       	sbi	0x01, 7	; 1
	DDR(HEATER_ON_LED_PORT) |= (1 << HEATER_ON_LED_PIN);
    1996:	3e 9a       	sbi	0x07, 6	; 7
    1998:	08 95       	ret

0000199a <_ZN3led6led_doEii>:
}


void led::led_do(int led_num, int state) {
	switch(led_num) {
    199a:	66 30       	cpi	r22, 0x06	; 6
    199c:	71 05       	cpc	r23, r1
    199e:	09 f4       	brne	.+2      	; 0x19a2 <_ZN3led6led_doEii+0x8>
    19a0:	6a c0       	rjmp	.+212    	; 0x1a76 <_ZN3led6led_doEii+0xdc>
    19a2:	a4 f4       	brge	.+40     	; 0x19cc <_ZN3led6led_doEii+0x32>
    19a4:	62 30       	cpi	r22, 0x02	; 2
    19a6:	71 05       	cpc	r23, r1
    19a8:	09 f4       	brne	.+2      	; 0x19ac <_ZN3led6led_doEii+0x12>
    19aa:	4b c0       	rjmp	.+150    	; 0x1a42 <_ZN3led6led_doEii+0xa8>
    19ac:	44 f4       	brge	.+16     	; 0x19be <_ZN3led6led_doEii+0x24>
    19ae:	61 15       	cp	r22, r1
    19b0:	71 05       	cpc	r23, r1
    19b2:	99 f1       	breq	.+102    	; 0x1a1a <_ZN3led6led_doEii+0x80>
    19b4:	61 30       	cpi	r22, 0x01	; 1
    19b6:	71 05       	cpc	r23, r1
    19b8:	09 f0       	breq	.+2      	; 0x19bc <_ZN3led6led_doEii+0x22>
    19ba:	86 c0       	rjmp	.+268    	; 0x1ac8 <_ZN3led6led_doEii+0x12e>
    19bc:	20 c0       	rjmp	.+64     	; 0x19fe <_ZN3led6led_doEii+0x64>
    19be:	64 30       	cpi	r22, 0x04	; 4
    19c0:	71 05       	cpc	r23, r1
    19c2:	09 f4       	brne	.+2      	; 0x19c6 <_ZN3led6led_doEii+0x2c>
    19c4:	4a c0       	rjmp	.+148    	; 0x1a5a <_ZN3led6led_doEii+0xc0>
    19c6:	0c f0       	brlt	.+2      	; 0x19ca <_ZN3led6led_doEii+0x30>
    19c8:	42 c0       	rjmp	.+132    	; 0x1a4e <_ZN3led6led_doEii+0xb4>
    19ca:	35 c0       	rjmp	.+106    	; 0x1a36 <_ZN3led6led_doEii+0x9c>
    19cc:	69 30       	cpi	r22, 0x09	; 9
    19ce:	71 05       	cpc	r23, r1
    19d0:	09 f4       	brne	.+2      	; 0x19d4 <_ZN3led6led_doEii+0x3a>
    19d2:	63 c0       	rjmp	.+198    	; 0x1a9a <_ZN3led6led_doEii+0x100>
    19d4:	4c f4       	brge	.+18     	; 0x19e8 <_ZN3led6led_doEii+0x4e>
    19d6:	67 30       	cpi	r22, 0x07	; 7
    19d8:	71 05       	cpc	r23, r1
    19da:	09 f4       	brne	.+2      	; 0x19de <_ZN3led6led_doEii+0x44>
    19dc:	52 c0       	rjmp	.+164    	; 0x1a82 <_ZN3led6led_doEii+0xe8>
    19de:	68 30       	cpi	r22, 0x08	; 8
    19e0:	71 05       	cpc	r23, r1
    19e2:	09 f0       	breq	.+2      	; 0x19e6 <_ZN3led6led_doEii+0x4c>
    19e4:	71 c0       	rjmp	.+226    	; 0x1ac8 <_ZN3led6led_doEii+0x12e>
    19e6:	53 c0       	rjmp	.+166    	; 0x1a8e <_ZN3led6led_doEii+0xf4>
    19e8:	6b 30       	cpi	r22, 0x0B	; 11
    19ea:	71 05       	cpc	r23, r1
    19ec:	09 f4       	brne	.+2      	; 0x19f0 <_ZN3led6led_doEii+0x56>
    19ee:	61 c0       	rjmp	.+194    	; 0x1ab2 <_ZN3led6led_doEii+0x118>
    19f0:	0c f4       	brge	.+2      	; 0x19f4 <_ZN3led6led_doEii+0x5a>
    19f2:	59 c0       	rjmp	.+178    	; 0x1aa6 <_ZN3led6led_doEii+0x10c>
    19f4:	6c 30       	cpi	r22, 0x0C	; 12
    19f6:	71 05       	cpc	r23, r1
    19f8:	09 f0       	breq	.+2      	; 0x19fc <_ZN3led6led_doEii+0x62>
    19fa:	66 c0       	rjmp	.+204    	; 0x1ac8 <_ZN3led6led_doEii+0x12e>
    19fc:	60 c0       	rjmp	.+192    	; 0x1abe <_ZN3led6led_doEii+0x124>
		case TS_HIGH_LED:
			REGISTER_LED(TS_HIGH_PORT, TS_HIGH_PIN, state);
    19fe:	45 2b       	or	r20, r21
    1a00:	31 f0       	breq	.+12     	; 0x1a0e <_ZN3led6led_doEii+0x74>
    1a02:	eb e0       	ldi	r30, 0x0B	; 11
    1a04:	f1 e0       	ldi	r31, 0x01	; 1
    1a06:	80 81       	ld	r24, Z
    1a08:	84 60       	ori	r24, 0x04	; 4
    1a0a:	80 83       	st	Z, r24
    1a0c:	08 95       	ret
    1a0e:	eb e0       	ldi	r30, 0x0B	; 11
    1a10:	f1 e0       	ldi	r31, 0x01	; 1
    1a12:	80 81       	ld	r24, Z
    1a14:	8b 7f       	andi	r24, 0xFB	; 251
    1a16:	80 83       	st	Z, r24
    1a18:	08 95       	ret
			break;
		case TS_LOW_LED:
			REGISTER_LED(TS_LOW_PORT, TS_LOW_PIN, state);
    1a1a:	45 2b       	or	r20, r21
    1a1c:	31 f0       	breq	.+12     	; 0x1a2a <_ZN3led6led_doEii+0x90>
    1a1e:	eb e0       	ldi	r30, 0x0B	; 11
    1a20:	f1 e0       	ldi	r31, 0x01	; 1
    1a22:	80 81       	ld	r24, Z
    1a24:	80 61       	ori	r24, 0x10	; 16
    1a26:	80 83       	st	Z, r24
    1a28:	08 95       	ret
    1a2a:	eb e0       	ldi	r30, 0x0B	; 11
    1a2c:	f1 e0       	ldi	r31, 0x01	; 1
    1a2e:	80 81       	ld	r24, Z
    1a30:	8f 7e       	andi	r24, 0xEF	; 239
    1a32:	80 83       	st	Z, r24
    1a34:	08 95       	ret
			break;
		case RH_HIGH_LED:
			REGISTER_LED(RH_HIGH_PORT, RH_HIGH_PIN, state);
    1a36:	45 2b       	or	r20, r21
    1a38:	11 f0       	breq	.+4      	; 0x1a3e <_ZN3led6led_doEii+0xa4>
    1a3a:	a2 9a       	sbi	0x14, 2	; 20
    1a3c:	08 95       	ret
    1a3e:	a2 98       	cbi	0x14, 2	; 20
    1a40:	08 95       	ret
			break;
		case RH_LOW_LED:
			REGISTER_LED(RH_LOW_PORT, RH_LOW_PIN, state);
    1a42:	45 2b       	or	r20, r21
    1a44:	11 f0       	breq	.+4      	; 0x1a4a <_ZN3led6led_doEii+0xb0>
    1a46:	a2 9a       	sbi	0x14, 2	; 20
    1a48:	08 95       	ret
    1a4a:	a2 98       	cbi	0x14, 2	; 20
    1a4c:	08 95       	ret
			break;
		case TA_HIGH_LED:
			REGISTER_LED(TA_HIGH_PORT, TA_HIGH_PIN, state);
    1a4e:	45 2b       	or	r20, r21
    1a50:	11 f0       	breq	.+4      	; 0x1a56 <_ZN3led6led_doEii+0xbc>
    1a52:	a0 9a       	sbi	0x14, 0	; 20
    1a54:	08 95       	ret
    1a56:	a0 98       	cbi	0x14, 0	; 20
    1a58:	08 95       	ret
			break;
		case TA_LOW_LED:
			REGISTER_LED(TA_LOW_PORT, TA_LOW_PIN, state);
    1a5a:	45 2b       	or	r20, r21
    1a5c:	31 f0       	breq	.+12     	; 0x1a6a <_ZN3led6led_doEii+0xd0>
    1a5e:	eb e0       	ldi	r30, 0x0B	; 11
    1a60:	f1 e0       	ldi	r31, 0x01	; 1
    1a62:	80 81       	ld	r24, Z
    1a64:	80 64       	ori	r24, 0x40	; 64
    1a66:	80 83       	st	Z, r24
    1a68:	08 95       	ret
    1a6a:	eb e0       	ldi	r30, 0x0B	; 11
    1a6c:	f1 e0       	ldi	r31, 0x01	; 1
    1a6e:	80 81       	ld	r24, Z
    1a70:	8f 7b       	andi	r24, 0xBF	; 191
    1a72:	80 83       	st	Z, r24
    1a74:	08 95       	ret
			break;
		case TIMER_RUNNING_LED:
			REGISTER_LED(TIMER_RUNNING_LED_PORT, TIMER_RUNNING_LED_PIN, state);
    1a76:	45 2b       	or	r20, r21
    1a78:	11 f0       	breq	.+4      	; 0x1a7e <_ZN3led6led_doEii+0xe4>
    1a7a:	13 9a       	sbi	0x02, 3	; 2
    1a7c:	08 95       	ret
    1a7e:	13 98       	cbi	0x02, 3	; 2
    1a80:	08 95       	ret
			break;
		case DOOR_CLOSED_LED:
			REGISTER_LED(DOOR_CLOSED_LED_PORT, DOOR_CLOSED_LED_PIN, state);
    1a82:	45 2b       	or	r20, r21
    1a84:	11 f0       	breq	.+4      	; 0x1a8a <_ZN3led6led_doEii+0xf0>
    1a86:	15 9a       	sbi	0x02, 5	; 2
    1a88:	08 95       	ret
    1a8a:	15 98       	cbi	0x02, 5	; 2
    1a8c:	08 95       	ret
			break;
		case TIMER_STOP_LED:
			REGISTER_LED(TIMER_STOP_LED_PORT, TIMER_STOP_LED_PIN, state);
    1a8e:	45 2b       	or	r20, r21
    1a90:	11 f0       	breq	.+4      	; 0x1a96 <_ZN3led6led_doEii+0xfc>
    1a92:	11 9a       	sbi	0x02, 1	; 2
    1a94:	08 95       	ret
    1a96:	11 98       	cbi	0x02, 1	; 2
    1a98:	08 95       	ret
			break;
		case KEYPAD_ENABLE_LED:
			REGISTER_LED(KEYPAD_ENABLE_LED_PORT, KEYPAD_ENABLE_LED_PIN, state);
    1a9a:	45 2b       	or	r20, r21
    1a9c:	11 f0       	breq	.+4      	; 0x1aa2 <_ZN3led6led_doEii+0x108>
    1a9e:	40 9a       	sbi	0x08, 0	; 8
    1aa0:	08 95       	ret
    1aa2:	40 98       	cbi	0x08, 0	; 8
    1aa4:	08 95       	ret
			break;
		case SYSTEM_FAULT_LED:
			REGISTER_LED(SYSTEM_FAULT_LED_PORT, SYSTEM_FAULT_LED_PIN, state);
    1aa6:	45 2b       	or	r20, r21
    1aa8:	11 f0       	breq	.+4      	; 0x1aae <_ZN3led6led_doEii+0x114>
    1aaa:	44 9a       	sbi	0x08, 4	; 8
    1aac:	08 95       	ret
    1aae:	44 98       	cbi	0x08, 4	; 8
    1ab0:	08 95       	ret
			break;
		case FAN_ON_LED:
			REGISTER_LED(FAN_ON_LED_PORT, FAN_ON_LED_PIN, state);
    1ab2:	45 2b       	or	r20, r21
    1ab4:	11 f0       	breq	.+4      	; 0x1aba <_ZN3led6led_doEii+0x120>
    1ab6:	17 9a       	sbi	0x02, 7	; 2
    1ab8:	08 95       	ret
    1aba:	17 98       	cbi	0x02, 7	; 2
    1abc:	08 95       	ret
			break;
		case HEATER_ON_LED:
			REGISTER_LED(HEATER_ON_LED_PORT, HEATER_ON_LED_PIN, state);
    1abe:	45 2b       	or	r20, r21
    1ac0:	11 f0       	breq	.+4      	; 0x1ac6 <_ZN3led6led_doEii+0x12c>
    1ac2:	46 9a       	sbi	0x08, 6	; 8
    1ac4:	08 95       	ret
    1ac6:	46 98       	cbi	0x08, 6	; 8
    1ac8:	08 95       	ret

00001aca <_ZN12PhotoTherapy17init_phototherapyEi>:
 */ 
#include "PhotoTherapy.h"


void PhotoTherapy::init_phototherapy(int frequency) {
	pwm_out.init_pwm(frequency);
    1aca:	17 d0       	rcall	.+46     	; 0x1afa <_ZN3PWM8init_pwmEi>
	DDR(PHOTO_PORT) |= (1 << PHOTO_PIN);
    1acc:	26 9a       	sbi	0x04, 6	; 4
	DDR(PHOTO_PWM_PORT) |= (1 << PHOTO_PWM_PIN);
    1ace:	25 9a       	sbi	0x04, 5	; 4
	PHOTO_PWM_PORT &=~ (1 << PHOTO_PWM_PIN);
    1ad0:	2d 98       	cbi	0x05, 5	; 5
    1ad2:	08 95       	ret

00001ad4 <_ZN12PhotoTherapy18start_phototherapyEi>:
	
}

void PhotoTherapy::start_phototherapy(int duty_cycle) {
	
	PHOTO_PORT |= (1 << PHOTO_PIN);
    1ad4:	2e 9a       	sbi	0x05, 6	; 5
	#else
		//round up by default
		__ticks_dc = (uint32_t)(ceil(fabs(__tmp)));
	#endif

	__builtin_avr_delay_cycles(__ticks_dc);
    1ad6:	e7 ea       	ldi	r30, 0xA7	; 167
    1ad8:	f1 e6       	ldi	r31, 0x61	; 97
    1ada:	31 97       	sbiw	r30, 0x01	; 1
    1adc:	f1 f7       	brne	.-4      	; 0x1ada <_ZN12PhotoTherapy18start_phototherapyEi+0x6>
    1ade:	00 c0       	rjmp	.+0      	; 0x1ae0 <_ZN12PhotoTherapy18start_phototherapyEi+0xc>
    1ae0:	00 00       	nop
	_delay_ms(100);
	pwm_out.start_pwm(duty_cycle);
    1ae2:	54 c0       	rjmp	.+168    	; 0x1b8c <_ZN3PWM9start_pwmEi>

00001ae4 <_ZN12PhotoTherapy17change_brightnessEi>:
	
	
}

void PhotoTherapy::change_brightness(int duty_cycle) {
	pwm_out.set_pwm(duty_cycle);
    1ae4:	28 c0       	rjmp	.+80     	; 0x1b36 <_ZN3PWM7set_pwmEi>
    1ae6:	08 95       	ret

00001ae8 <_ZN12PhotoTherapy17stop_phototherapyEv>:
}

void PhotoTherapy::stop_phototherapy() {
	pwm_out.stop_pwm();
    1ae8:	53 d0       	rcall	.+166    	; 0x1b90 <_ZN3PWM8stop_pwmEv>
    1aea:	87 ea       	ldi	r24, 0xA7	; 167
    1aec:	91 e6       	ldi	r25, 0x61	; 97
    1aee:	01 97       	sbiw	r24, 0x01	; 1
    1af0:	f1 f7       	brne	.-4      	; 0x1aee <_ZN12PhotoTherapy17stop_phototherapyEv+0x6>
    1af2:	00 c0       	rjmp	.+0      	; 0x1af4 <_ZN12PhotoTherapy17stop_phototherapyEv+0xc>
    1af4:	00 00       	nop
	_delay_ms(100);
	PHOTO_PORT &=~ (1 << PHOTO_PIN);
    1af6:	2e 98       	cbi	0x05, 6	; 5
    1af8:	08 95       	ret

00001afa <_ZN3PWM8init_pwmEi>:
 */ 

#include "PWM.h"

void PWM::init_pwm(int frequency) {
	TCCR1A |= (1 << COM1A1); //clear on compare match
    1afa:	e0 e8       	ldi	r30, 0x80	; 128
    1afc:	f0 e0       	ldi	r31, 0x00	; 0
    1afe:	20 81       	ld	r18, Z
    1b00:	20 68       	ori	r18, 0x80	; 128
    1b02:	20 83       	st	Z, r18
	TCCR1A |= (1 << WGM11); ////for fast pwm whose max is decided by ICR1
    1b04:	20 81       	ld	r18, Z
    1b06:	22 60       	ori	r18, 0x02	; 2
    1b08:	20 83       	st	Z, r18
	TCCR1B |= (1 << WGM13) | (1 <<WGM12); //for fast pwm whose max is decided by ICR1
    1b0a:	e1 e8       	ldi	r30, 0x81	; 129
    1b0c:	f0 e0       	ldi	r31, 0x00	; 0
    1b0e:	20 81       	ld	r18, Z
    1b10:	28 61       	ori	r18, 0x18	; 24
    1b12:	20 83       	st	Z, r18
	//TIMSK1 |= (1 << ICIE1) | (1 << OCIE1A); //interrupt enable for output compare match
	TCCR1B |= (1 << CS11); //prescalar 8
    1b14:	20 81       	ld	r18, Z
    1b16:	22 60       	ori	r18, 0x02	; 2
    1b18:	20 83       	st	Z, r18
	//top = (F_CPU/(8 * frequency * 1.0)) - 1;
	top = 2000;
    1b1a:	20 ed       	ldi	r18, 0xD0	; 208
    1b1c:	37 e0       	ldi	r19, 0x07	; 7
    1b1e:	fc 01       	movw	r30, r24
    1b20:	31 83       	std	Z+1, r19	; 0x01
    1b22:	20 83       	st	Z, r18
	ICR1 = top;
    1b24:	30 93 87 00 	sts	0x0087, r19
    1b28:	20 93 86 00 	sts	0x0086, r18
	OCR1A = 0;
    1b2c:	10 92 89 00 	sts	0x0089, r1
    1b30:	10 92 88 00 	sts	0x0088, r1
    1b34:	08 95       	ret

00001b36 <_ZN3PWM7set_pwmEi>:
	
}

void PWM::set_pwm(int duty_cycle) {
    1b36:	cf 92       	push	r12
    1b38:	df 92       	push	r13
    1b3a:	ef 92       	push	r14
    1b3c:	ff 92       	push	r15
    1b3e:	cf 93       	push	r28
    1b40:	df 93       	push	r29
    1b42:	ec 01       	movw	r28, r24
	OCR1A = (duty_cycle/ 100.0) * top;
    1b44:	88 27       	eor	r24, r24
    1b46:	77 fd       	sbrc	r23, 7
    1b48:	80 95       	com	r24
    1b4a:	98 2f       	mov	r25, r24
    1b4c:	b0 d1       	rcall	.+864    	; 0x1eae <__floatsisf>
    1b4e:	20 e0       	ldi	r18, 0x00	; 0
    1b50:	30 e0       	ldi	r19, 0x00	; 0
    1b52:	48 ec       	ldi	r20, 0xC8	; 200
    1b54:	52 e4       	ldi	r21, 0x42	; 66
    1b56:	10 d1       	rcall	.+544    	; 0x1d78 <__divsf3>
    1b58:	6b 01       	movw	r12, r22
    1b5a:	7c 01       	movw	r14, r24
    1b5c:	68 81       	ld	r22, Y
    1b5e:	79 81       	ldd	r23, Y+1	; 0x01
    1b60:	88 27       	eor	r24, r24
    1b62:	77 fd       	sbrc	r23, 7
    1b64:	80 95       	com	r24
    1b66:	98 2f       	mov	r25, r24
    1b68:	a2 d1       	rcall	.+836    	; 0x1eae <__floatsisf>
    1b6a:	9b 01       	movw	r18, r22
    1b6c:	ac 01       	movw	r20, r24
    1b6e:	c7 01       	movw	r24, r14
    1b70:	b6 01       	movw	r22, r12
    1b72:	51 d2       	rcall	.+1186   	; 0x2016 <__mulsf3>
    1b74:	6e d1       	rcall	.+732    	; 0x1e52 <__fixunssfsi>
    1b76:	70 93 89 00 	sts	0x0089, r23
    1b7a:	60 93 88 00 	sts	0x0088, r22
}
    1b7e:	df 91       	pop	r29
    1b80:	cf 91       	pop	r28
    1b82:	ff 90       	pop	r15
    1b84:	ef 90       	pop	r14
    1b86:	df 90       	pop	r13
    1b88:	cf 90       	pop	r12
    1b8a:	08 95       	ret

00001b8c <_ZN3PWM9start_pwmEi>:

void PWM::start_pwm(int duty_cycle) {
	
	PWM::set_pwm(duty_cycle); 
    1b8c:	d4 cf       	rjmp	.-88     	; 0x1b36 <_ZN3PWM7set_pwmEi>
    1b8e:	08 95       	ret

00001b90 <_ZN3PWM8stop_pwmEv>:
}

void PWM::stop_pwm() {
	//TCCR1B &=~ ((1 << CS12) | (1 << CS11) | (1 << CS10));
	OCR1A = 0;
    1b90:	10 92 89 00 	sts	0x0089, r1
    1b94:	10 92 88 00 	sts	0x0088, r1
    1b98:	08 95       	ret

00001b9a <_ZN6Timerr11setTimerNumEi>:

void Timerr::resetTimer() {
	if(this->timer_no == 5){
		TCNT5 = 0;
	} else if(this->timer_no == 3) {
		TCNT3 = 0;
    1b9a:	fc 01       	movw	r30, r24
    1b9c:	71 83       	std	Z+1, r23	; 0x01
    1b9e:	60 83       	st	Z, r22
    1ba0:	08 95       	ret

00001ba2 <_ZN6Timerr9stopTimerEv>:
    1ba2:	fc 01       	movw	r30, r24
    1ba4:	80 81       	ld	r24, Z
    1ba6:	91 81       	ldd	r25, Z+1	; 0x01
    1ba8:	83 30       	cpi	r24, 0x03	; 3
    1baa:	91 05       	cpc	r25, r1
    1bac:	81 f0       	breq	.+32     	; 0x1bce <_ZN6Timerr9stopTimerEv+0x2c>
    1bae:	1c f4       	brge	.+6      	; 0x1bb6 <_ZN6Timerr9stopTimerEv+0x14>
    1bb0:	01 97       	sbiw	r24, 0x01	; 1
    1bb2:	f1 f4       	brne	.+60     	; 0x1bf0 <_ZN6Timerr9stopTimerEv+0x4e>
    1bb4:	06 c0       	rjmp	.+12     	; 0x1bc2 <_ZN6Timerr9stopTimerEv+0x20>
    1bb6:	84 30       	cpi	r24, 0x04	; 4
    1bb8:	91 05       	cpc	r25, r1
    1bba:	79 f0       	breq	.+30     	; 0x1bda <_ZN6Timerr9stopTimerEv+0x38>
    1bbc:	05 97       	sbiw	r24, 0x05	; 5
    1bbe:	c1 f4       	brne	.+48     	; 0x1bf0 <_ZN6Timerr9stopTimerEv+0x4e>
    1bc0:	12 c0       	rjmp	.+36     	; 0x1be6 <_ZN6Timerr9stopTimerEv+0x44>
    1bc2:	e1 e8       	ldi	r30, 0x81	; 129
    1bc4:	f0 e0       	ldi	r31, 0x00	; 0
    1bc6:	80 81       	ld	r24, Z
    1bc8:	88 7f       	andi	r24, 0xF8	; 248
    1bca:	80 83       	st	Z, r24
    1bcc:	08 95       	ret
    1bce:	e1 e9       	ldi	r30, 0x91	; 145
    1bd0:	f0 e0       	ldi	r31, 0x00	; 0
    1bd2:	80 81       	ld	r24, Z
    1bd4:	88 7f       	andi	r24, 0xF8	; 248
    1bd6:	80 83       	st	Z, r24
    1bd8:	08 95       	ret
    1bda:	e1 ea       	ldi	r30, 0xA1	; 161
    1bdc:	f0 e0       	ldi	r31, 0x00	; 0
    1bde:	80 81       	ld	r24, Z
    1be0:	88 7f       	andi	r24, 0xF8	; 248
    1be2:	80 83       	st	Z, r24
    1be4:	08 95       	ret
    1be6:	e1 e2       	ldi	r30, 0x21	; 33
    1be8:	f1 e0       	ldi	r31, 0x01	; 1
    1bea:	80 81       	ld	r24, Z
    1bec:	88 7f       	andi	r24, 0xF8	; 248
    1bee:	80 83       	st	Z, r24
    1bf0:	08 95       	ret

00001bf2 <_ZN6Timerr19setCompareInterruptEv>:
    1bf2:	fc 01       	movw	r30, r24
    1bf4:	80 81       	ld	r24, Z
    1bf6:	91 81       	ldd	r25, Z+1	; 0x01
    1bf8:	83 30       	cpi	r24, 0x03	; 3
    1bfa:	91 05       	cpc	r25, r1
    1bfc:	81 f0       	breq	.+32     	; 0x1c1e <_ZN6Timerr19setCompareInterruptEv+0x2c>
    1bfe:	1c f4       	brge	.+6      	; 0x1c06 <_ZN6Timerr19setCompareInterruptEv+0x14>
    1c00:	01 97       	sbiw	r24, 0x01	; 1
    1c02:	f1 f4       	brne	.+60     	; 0x1c40 <_ZN6Timerr19setCompareInterruptEv+0x4e>
    1c04:	06 c0       	rjmp	.+12     	; 0x1c12 <_ZN6Timerr19setCompareInterruptEv+0x20>
    1c06:	84 30       	cpi	r24, 0x04	; 4
    1c08:	91 05       	cpc	r25, r1
    1c0a:	79 f0       	breq	.+30     	; 0x1c2a <_ZN6Timerr19setCompareInterruptEv+0x38>
    1c0c:	05 97       	sbiw	r24, 0x05	; 5
    1c0e:	c1 f4       	brne	.+48     	; 0x1c40 <_ZN6Timerr19setCompareInterruptEv+0x4e>
    1c10:	12 c0       	rjmp	.+36     	; 0x1c36 <_ZN6Timerr19setCompareInterruptEv+0x44>
    1c12:	ef e6       	ldi	r30, 0x6F	; 111
    1c14:	f0 e0       	ldi	r31, 0x00	; 0
    1c16:	80 81       	ld	r24, Z
    1c18:	82 60       	ori	r24, 0x02	; 2
    1c1a:	80 83       	st	Z, r24
    1c1c:	08 95       	ret
    1c1e:	e1 e7       	ldi	r30, 0x71	; 113
    1c20:	f0 e0       	ldi	r31, 0x00	; 0
    1c22:	80 81       	ld	r24, Z
    1c24:	82 60       	ori	r24, 0x02	; 2
    1c26:	80 83       	st	Z, r24
    1c28:	08 95       	ret
    1c2a:	e2 e7       	ldi	r30, 0x72	; 114
    1c2c:	f0 e0       	ldi	r31, 0x00	; 0
    1c2e:	80 81       	ld	r24, Z
    1c30:	82 60       	ori	r24, 0x02	; 2
    1c32:	80 83       	st	Z, r24
    1c34:	08 95       	ret
    1c36:	e3 e7       	ldi	r30, 0x73	; 115
    1c38:	f0 e0       	ldi	r31, 0x00	; 0
    1c3a:	80 81       	ld	r24, Z
    1c3c:	82 60       	ori	r24, 0x02	; 2
    1c3e:	80 83       	st	Z, r24
    1c40:	08 95       	ret

00001c42 <_ZN6Timerr16startCustomTimerEi>:
	}
}
void Timerr::startCustomTimer(int milli_sec) {
	
	if(this->timer_no == 5) {
    1c42:	fc 01       	movw	r30, r24
    1c44:	80 81       	ld	r24, Z
    1c46:	91 81       	ldd	r25, Z+1	; 0x01
    1c48:	85 30       	cpi	r24, 0x05	; 5
    1c4a:	91 05       	cpc	r25, r1
    1c4c:	a9 f4       	brne	.+42     	; 0x1c78 <_ZN6Timerr16startCustomTimerEi+0x36>
		int ocr = (15.625 * milli_sec);
    1c4e:	88 27       	eor	r24, r24
    1c50:	77 fd       	sbrc	r23, 7
    1c52:	80 95       	com	r24
    1c54:	98 2f       	mov	r25, r24
    1c56:	2b d1       	rcall	.+598    	; 0x1eae <__floatsisf>
    1c58:	20 e0       	ldi	r18, 0x00	; 0
    1c5a:	30 e0       	ldi	r19, 0x00	; 0
    1c5c:	4a e7       	ldi	r20, 0x7A	; 122
    1c5e:	51 e4       	ldi	r21, 0x41	; 65
    1c60:	da d1       	rcall	.+948    	; 0x2016 <__mulsf3>
    1c62:	f2 d0       	rcall	.+484    	; 0x1e48 <__fixsfsi>
		OCR5A = ocr;
    1c64:	70 93 29 01 	sts	0x0129, r23
    1c68:	60 93 28 01 	sts	0x0128, r22
		START_TIMERR(5,0,2); //for proteus use 5,0,1 and for real life use 5,0,2
    1c6c:	e1 e2       	ldi	r30, 0x21	; 33
    1c6e:	f1 e0       	ldi	r31, 0x01	; 1
    1c70:	80 81       	ld	r24, Z
    1c72:	85 60       	ori	r24, 0x05	; 5
    1c74:	80 83       	st	Z, r24
    1c76:	08 95       	ret
	} else if(this->timer_no == 3) {
    1c78:	03 97       	sbiw	r24, 0x03	; 3
    1c7a:	a1 f4       	brne	.+40     	; 0x1ca4 <_ZN6Timerr16startCustomTimerEi+0x62>
		int ocr = (15.625 * milli_sec);
    1c7c:	88 27       	eor	r24, r24
    1c7e:	77 fd       	sbrc	r23, 7
    1c80:	80 95       	com	r24
    1c82:	98 2f       	mov	r25, r24
    1c84:	14 d1       	rcall	.+552    	; 0x1eae <__floatsisf>
    1c86:	20 e0       	ldi	r18, 0x00	; 0
    1c88:	30 e0       	ldi	r19, 0x00	; 0
    1c8a:	4a e7       	ldi	r20, 0x7A	; 122
    1c8c:	51 e4       	ldi	r21, 0x41	; 65
    1c8e:	c3 d1       	rcall	.+902    	; 0x2016 <__mulsf3>
    1c90:	db d0       	rcall	.+438    	; 0x1e48 <__fixsfsi>
		OCR3A = ocr;
    1c92:	70 93 99 00 	sts	0x0099, r23
    1c96:	60 93 98 00 	sts	0x0098, r22
		START_TIMERR(3,0,2); //for proteus use 3,0,1 and for real life use 3,0,2
    1c9a:	e1 e9       	ldi	r30, 0x91	; 145
    1c9c:	f0 e0       	ldi	r31, 0x00	; 0
    1c9e:	80 81       	ld	r24, Z
    1ca0:	85 60       	ori	r24, 0x05	; 5
    1ca2:	80 83       	st	Z, r24
    1ca4:	08 95       	ret

00001ca6 <__subsf3>:
    1ca6:	50 58       	subi	r21, 0x80	; 128

00001ca8 <__addsf3>:
    1ca8:	bb 27       	eor	r27, r27
    1caa:	aa 27       	eor	r26, r26
    1cac:	0e d0       	rcall	.+28     	; 0x1cca <__addsf3x>
    1cae:	75 c1       	rjmp	.+746    	; 0x1f9a <__fp_round>
    1cb0:	66 d1       	rcall	.+716    	; 0x1f7e <__fp_pscA>
    1cb2:	30 f0       	brcs	.+12     	; 0x1cc0 <__addsf3+0x18>
    1cb4:	6b d1       	rcall	.+726    	; 0x1f8c <__fp_pscB>
    1cb6:	20 f0       	brcs	.+8      	; 0x1cc0 <__addsf3+0x18>
    1cb8:	31 f4       	brne	.+12     	; 0x1cc6 <__addsf3+0x1e>
    1cba:	9f 3f       	cpi	r25, 0xFF	; 255
    1cbc:	11 f4       	brne	.+4      	; 0x1cc2 <__addsf3+0x1a>
    1cbe:	1e f4       	brtc	.+6      	; 0x1cc6 <__addsf3+0x1e>
    1cc0:	5b c1       	rjmp	.+694    	; 0x1f78 <__fp_nan>
    1cc2:	0e f4       	brtc	.+2      	; 0x1cc6 <__addsf3+0x1e>
    1cc4:	e0 95       	com	r30
    1cc6:	e7 fb       	bst	r30, 7
    1cc8:	51 c1       	rjmp	.+674    	; 0x1f6c <__fp_inf>

00001cca <__addsf3x>:
    1cca:	e9 2f       	mov	r30, r25
    1ccc:	77 d1       	rcall	.+750    	; 0x1fbc <__fp_split3>
    1cce:	80 f3       	brcs	.-32     	; 0x1cb0 <__addsf3+0x8>
    1cd0:	ba 17       	cp	r27, r26
    1cd2:	62 07       	cpc	r22, r18
    1cd4:	73 07       	cpc	r23, r19
    1cd6:	84 07       	cpc	r24, r20
    1cd8:	95 07       	cpc	r25, r21
    1cda:	18 f0       	brcs	.+6      	; 0x1ce2 <__addsf3x+0x18>
    1cdc:	71 f4       	brne	.+28     	; 0x1cfa <__addsf3x+0x30>
    1cde:	9e f5       	brtc	.+102    	; 0x1d46 <__addsf3x+0x7c>
    1ce0:	8f c1       	rjmp	.+798    	; 0x2000 <__fp_zero>
    1ce2:	0e f4       	brtc	.+2      	; 0x1ce6 <__addsf3x+0x1c>
    1ce4:	e0 95       	com	r30
    1ce6:	0b 2e       	mov	r0, r27
    1ce8:	ba 2f       	mov	r27, r26
    1cea:	a0 2d       	mov	r26, r0
    1cec:	0b 01       	movw	r0, r22
    1cee:	b9 01       	movw	r22, r18
    1cf0:	90 01       	movw	r18, r0
    1cf2:	0c 01       	movw	r0, r24
    1cf4:	ca 01       	movw	r24, r20
    1cf6:	a0 01       	movw	r20, r0
    1cf8:	11 24       	eor	r1, r1
    1cfa:	ff 27       	eor	r31, r31
    1cfc:	59 1b       	sub	r21, r25
    1cfe:	99 f0       	breq	.+38     	; 0x1d26 <__addsf3x+0x5c>
    1d00:	59 3f       	cpi	r21, 0xF9	; 249
    1d02:	50 f4       	brcc	.+20     	; 0x1d18 <__addsf3x+0x4e>
    1d04:	50 3e       	cpi	r21, 0xE0	; 224
    1d06:	68 f1       	brcs	.+90     	; 0x1d62 <__addsf3x+0x98>
    1d08:	1a 16       	cp	r1, r26
    1d0a:	f0 40       	sbci	r31, 0x00	; 0
    1d0c:	a2 2f       	mov	r26, r18
    1d0e:	23 2f       	mov	r18, r19
    1d10:	34 2f       	mov	r19, r20
    1d12:	44 27       	eor	r20, r20
    1d14:	58 5f       	subi	r21, 0xF8	; 248
    1d16:	f3 cf       	rjmp	.-26     	; 0x1cfe <__addsf3x+0x34>
    1d18:	46 95       	lsr	r20
    1d1a:	37 95       	ror	r19
    1d1c:	27 95       	ror	r18
    1d1e:	a7 95       	ror	r26
    1d20:	f0 40       	sbci	r31, 0x00	; 0
    1d22:	53 95       	inc	r21
    1d24:	c9 f7       	brne	.-14     	; 0x1d18 <__addsf3x+0x4e>
    1d26:	7e f4       	brtc	.+30     	; 0x1d46 <__addsf3x+0x7c>
    1d28:	1f 16       	cp	r1, r31
    1d2a:	ba 0b       	sbc	r27, r26
    1d2c:	62 0b       	sbc	r22, r18
    1d2e:	73 0b       	sbc	r23, r19
    1d30:	84 0b       	sbc	r24, r20
    1d32:	ba f0       	brmi	.+46     	; 0x1d62 <__addsf3x+0x98>
    1d34:	91 50       	subi	r25, 0x01	; 1
    1d36:	a1 f0       	breq	.+40     	; 0x1d60 <__addsf3x+0x96>
    1d38:	ff 0f       	add	r31, r31
    1d3a:	bb 1f       	adc	r27, r27
    1d3c:	66 1f       	adc	r22, r22
    1d3e:	77 1f       	adc	r23, r23
    1d40:	88 1f       	adc	r24, r24
    1d42:	c2 f7       	brpl	.-16     	; 0x1d34 <__addsf3x+0x6a>
    1d44:	0e c0       	rjmp	.+28     	; 0x1d62 <__addsf3x+0x98>
    1d46:	ba 0f       	add	r27, r26
    1d48:	62 1f       	adc	r22, r18
    1d4a:	73 1f       	adc	r23, r19
    1d4c:	84 1f       	adc	r24, r20
    1d4e:	48 f4       	brcc	.+18     	; 0x1d62 <__addsf3x+0x98>
    1d50:	87 95       	ror	r24
    1d52:	77 95       	ror	r23
    1d54:	67 95       	ror	r22
    1d56:	b7 95       	ror	r27
    1d58:	f7 95       	ror	r31
    1d5a:	9e 3f       	cpi	r25, 0xFE	; 254
    1d5c:	08 f0       	brcs	.+2      	; 0x1d60 <__addsf3x+0x96>
    1d5e:	b3 cf       	rjmp	.-154    	; 0x1cc6 <__addsf3+0x1e>
    1d60:	93 95       	inc	r25
    1d62:	88 0f       	add	r24, r24
    1d64:	08 f0       	brcs	.+2      	; 0x1d68 <__addsf3x+0x9e>
    1d66:	99 27       	eor	r25, r25
    1d68:	ee 0f       	add	r30, r30
    1d6a:	97 95       	ror	r25
    1d6c:	87 95       	ror	r24
    1d6e:	08 95       	ret

00001d70 <__cmpsf2>:
    1d70:	d9 d0       	rcall	.+434    	; 0x1f24 <__fp_cmp>
    1d72:	08 f4       	brcc	.+2      	; 0x1d76 <__cmpsf2+0x6>
    1d74:	81 e0       	ldi	r24, 0x01	; 1
    1d76:	08 95       	ret

00001d78 <__divsf3>:
    1d78:	0c d0       	rcall	.+24     	; 0x1d92 <__divsf3x>
    1d7a:	0f c1       	rjmp	.+542    	; 0x1f9a <__fp_round>
    1d7c:	07 d1       	rcall	.+526    	; 0x1f8c <__fp_pscB>
    1d7e:	40 f0       	brcs	.+16     	; 0x1d90 <__divsf3+0x18>
    1d80:	fe d0       	rcall	.+508    	; 0x1f7e <__fp_pscA>
    1d82:	30 f0       	brcs	.+12     	; 0x1d90 <__divsf3+0x18>
    1d84:	21 f4       	brne	.+8      	; 0x1d8e <__divsf3+0x16>
    1d86:	5f 3f       	cpi	r21, 0xFF	; 255
    1d88:	19 f0       	breq	.+6      	; 0x1d90 <__divsf3+0x18>
    1d8a:	f0 c0       	rjmp	.+480    	; 0x1f6c <__fp_inf>
    1d8c:	51 11       	cpse	r21, r1
    1d8e:	39 c1       	rjmp	.+626    	; 0x2002 <__fp_szero>
    1d90:	f3 c0       	rjmp	.+486    	; 0x1f78 <__fp_nan>

00001d92 <__divsf3x>:
    1d92:	14 d1       	rcall	.+552    	; 0x1fbc <__fp_split3>
    1d94:	98 f3       	brcs	.-26     	; 0x1d7c <__divsf3+0x4>

00001d96 <__divsf3_pse>:
    1d96:	99 23       	and	r25, r25
    1d98:	c9 f3       	breq	.-14     	; 0x1d8c <__divsf3+0x14>
    1d9a:	55 23       	and	r21, r21
    1d9c:	b1 f3       	breq	.-20     	; 0x1d8a <__divsf3+0x12>
    1d9e:	95 1b       	sub	r25, r21
    1da0:	55 0b       	sbc	r21, r21
    1da2:	bb 27       	eor	r27, r27
    1da4:	aa 27       	eor	r26, r26
    1da6:	62 17       	cp	r22, r18
    1da8:	73 07       	cpc	r23, r19
    1daa:	84 07       	cpc	r24, r20
    1dac:	38 f0       	brcs	.+14     	; 0x1dbc <__divsf3_pse+0x26>
    1dae:	9f 5f       	subi	r25, 0xFF	; 255
    1db0:	5f 4f       	sbci	r21, 0xFF	; 255
    1db2:	22 0f       	add	r18, r18
    1db4:	33 1f       	adc	r19, r19
    1db6:	44 1f       	adc	r20, r20
    1db8:	aa 1f       	adc	r26, r26
    1dba:	a9 f3       	breq	.-22     	; 0x1da6 <__divsf3_pse+0x10>
    1dbc:	33 d0       	rcall	.+102    	; 0x1e24 <__divsf3_pse+0x8e>
    1dbe:	0e 2e       	mov	r0, r30
    1dc0:	3a f0       	brmi	.+14     	; 0x1dd0 <__divsf3_pse+0x3a>
    1dc2:	e0 e8       	ldi	r30, 0x80	; 128
    1dc4:	30 d0       	rcall	.+96     	; 0x1e26 <__divsf3_pse+0x90>
    1dc6:	91 50       	subi	r25, 0x01	; 1
    1dc8:	50 40       	sbci	r21, 0x00	; 0
    1dca:	e6 95       	lsr	r30
    1dcc:	00 1c       	adc	r0, r0
    1dce:	ca f7       	brpl	.-14     	; 0x1dc2 <__divsf3_pse+0x2c>
    1dd0:	29 d0       	rcall	.+82     	; 0x1e24 <__divsf3_pse+0x8e>
    1dd2:	fe 2f       	mov	r31, r30
    1dd4:	27 d0       	rcall	.+78     	; 0x1e24 <__divsf3_pse+0x8e>
    1dd6:	66 0f       	add	r22, r22
    1dd8:	77 1f       	adc	r23, r23
    1dda:	88 1f       	adc	r24, r24
    1ddc:	bb 1f       	adc	r27, r27
    1dde:	26 17       	cp	r18, r22
    1de0:	37 07       	cpc	r19, r23
    1de2:	48 07       	cpc	r20, r24
    1de4:	ab 07       	cpc	r26, r27
    1de6:	b0 e8       	ldi	r27, 0x80	; 128
    1de8:	09 f0       	breq	.+2      	; 0x1dec <__divsf3_pse+0x56>
    1dea:	bb 0b       	sbc	r27, r27
    1dec:	80 2d       	mov	r24, r0
    1dee:	bf 01       	movw	r22, r30
    1df0:	ff 27       	eor	r31, r31
    1df2:	93 58       	subi	r25, 0x83	; 131
    1df4:	5f 4f       	sbci	r21, 0xFF	; 255
    1df6:	2a f0       	brmi	.+10     	; 0x1e02 <__divsf3_pse+0x6c>
    1df8:	9e 3f       	cpi	r25, 0xFE	; 254
    1dfa:	51 05       	cpc	r21, r1
    1dfc:	68 f0       	brcs	.+26     	; 0x1e18 <__divsf3_pse+0x82>
    1dfe:	b6 c0       	rjmp	.+364    	; 0x1f6c <__fp_inf>
    1e00:	00 c1       	rjmp	.+512    	; 0x2002 <__fp_szero>
    1e02:	5f 3f       	cpi	r21, 0xFF	; 255
    1e04:	ec f3       	brlt	.-6      	; 0x1e00 <__divsf3_pse+0x6a>
    1e06:	98 3e       	cpi	r25, 0xE8	; 232
    1e08:	dc f3       	brlt	.-10     	; 0x1e00 <__divsf3_pse+0x6a>
    1e0a:	86 95       	lsr	r24
    1e0c:	77 95       	ror	r23
    1e0e:	67 95       	ror	r22
    1e10:	b7 95       	ror	r27
    1e12:	f7 95       	ror	r31
    1e14:	9f 5f       	subi	r25, 0xFF	; 255
    1e16:	c9 f7       	brne	.-14     	; 0x1e0a <__divsf3_pse+0x74>
    1e18:	88 0f       	add	r24, r24
    1e1a:	91 1d       	adc	r25, r1
    1e1c:	96 95       	lsr	r25
    1e1e:	87 95       	ror	r24
    1e20:	97 f9       	bld	r25, 7
    1e22:	08 95       	ret
    1e24:	e1 e0       	ldi	r30, 0x01	; 1
    1e26:	66 0f       	add	r22, r22
    1e28:	77 1f       	adc	r23, r23
    1e2a:	88 1f       	adc	r24, r24
    1e2c:	bb 1f       	adc	r27, r27
    1e2e:	62 17       	cp	r22, r18
    1e30:	73 07       	cpc	r23, r19
    1e32:	84 07       	cpc	r24, r20
    1e34:	ba 07       	cpc	r27, r26
    1e36:	20 f0       	brcs	.+8      	; 0x1e40 <__divsf3_pse+0xaa>
    1e38:	62 1b       	sub	r22, r18
    1e3a:	73 0b       	sbc	r23, r19
    1e3c:	84 0b       	sbc	r24, r20
    1e3e:	ba 0b       	sbc	r27, r26
    1e40:	ee 1f       	adc	r30, r30
    1e42:	88 f7       	brcc	.-30     	; 0x1e26 <__divsf3_pse+0x90>
    1e44:	e0 95       	com	r30
    1e46:	08 95       	ret

00001e48 <__fixsfsi>:
    1e48:	04 d0       	rcall	.+8      	; 0x1e52 <__fixunssfsi>
    1e4a:	68 94       	set
    1e4c:	b1 11       	cpse	r27, r1
    1e4e:	d9 c0       	rjmp	.+434    	; 0x2002 <__fp_szero>
    1e50:	08 95       	ret

00001e52 <__fixunssfsi>:
    1e52:	bc d0       	rcall	.+376    	; 0x1fcc <__fp_splitA>
    1e54:	88 f0       	brcs	.+34     	; 0x1e78 <__fixunssfsi+0x26>
    1e56:	9f 57       	subi	r25, 0x7F	; 127
    1e58:	90 f0       	brcs	.+36     	; 0x1e7e <__fixunssfsi+0x2c>
    1e5a:	b9 2f       	mov	r27, r25
    1e5c:	99 27       	eor	r25, r25
    1e5e:	b7 51       	subi	r27, 0x17	; 23
    1e60:	a0 f0       	brcs	.+40     	; 0x1e8a <__fixunssfsi+0x38>
    1e62:	d1 f0       	breq	.+52     	; 0x1e98 <__fixunssfsi+0x46>
    1e64:	66 0f       	add	r22, r22
    1e66:	77 1f       	adc	r23, r23
    1e68:	88 1f       	adc	r24, r24
    1e6a:	99 1f       	adc	r25, r25
    1e6c:	1a f0       	brmi	.+6      	; 0x1e74 <__fixunssfsi+0x22>
    1e6e:	ba 95       	dec	r27
    1e70:	c9 f7       	brne	.-14     	; 0x1e64 <__fixunssfsi+0x12>
    1e72:	12 c0       	rjmp	.+36     	; 0x1e98 <__fixunssfsi+0x46>
    1e74:	b1 30       	cpi	r27, 0x01	; 1
    1e76:	81 f0       	breq	.+32     	; 0x1e98 <__fixunssfsi+0x46>
    1e78:	c3 d0       	rcall	.+390    	; 0x2000 <__fp_zero>
    1e7a:	b1 e0       	ldi	r27, 0x01	; 1
    1e7c:	08 95       	ret
    1e7e:	c0 c0       	rjmp	.+384    	; 0x2000 <__fp_zero>
    1e80:	67 2f       	mov	r22, r23
    1e82:	78 2f       	mov	r23, r24
    1e84:	88 27       	eor	r24, r24
    1e86:	b8 5f       	subi	r27, 0xF8	; 248
    1e88:	39 f0       	breq	.+14     	; 0x1e98 <__fixunssfsi+0x46>
    1e8a:	b9 3f       	cpi	r27, 0xF9	; 249
    1e8c:	cc f3       	brlt	.-14     	; 0x1e80 <__fixunssfsi+0x2e>
    1e8e:	86 95       	lsr	r24
    1e90:	77 95       	ror	r23
    1e92:	67 95       	ror	r22
    1e94:	b3 95       	inc	r27
    1e96:	d9 f7       	brne	.-10     	; 0x1e8e <__fixunssfsi+0x3c>
    1e98:	3e f4       	brtc	.+14     	; 0x1ea8 <__fixunssfsi+0x56>
    1e9a:	90 95       	com	r25
    1e9c:	80 95       	com	r24
    1e9e:	70 95       	com	r23
    1ea0:	61 95       	neg	r22
    1ea2:	7f 4f       	sbci	r23, 0xFF	; 255
    1ea4:	8f 4f       	sbci	r24, 0xFF	; 255
    1ea6:	9f 4f       	sbci	r25, 0xFF	; 255
    1ea8:	08 95       	ret

00001eaa <__floatunsisf>:
    1eaa:	e8 94       	clt
    1eac:	09 c0       	rjmp	.+18     	; 0x1ec0 <__floatsisf+0x12>

00001eae <__floatsisf>:
    1eae:	97 fb       	bst	r25, 7
    1eb0:	3e f4       	brtc	.+14     	; 0x1ec0 <__floatsisf+0x12>
    1eb2:	90 95       	com	r25
    1eb4:	80 95       	com	r24
    1eb6:	70 95       	com	r23
    1eb8:	61 95       	neg	r22
    1eba:	7f 4f       	sbci	r23, 0xFF	; 255
    1ebc:	8f 4f       	sbci	r24, 0xFF	; 255
    1ebe:	9f 4f       	sbci	r25, 0xFF	; 255
    1ec0:	99 23       	and	r25, r25
    1ec2:	a9 f0       	breq	.+42     	; 0x1eee <__floatsisf+0x40>
    1ec4:	f9 2f       	mov	r31, r25
    1ec6:	96 e9       	ldi	r25, 0x96	; 150
    1ec8:	bb 27       	eor	r27, r27
    1eca:	93 95       	inc	r25
    1ecc:	f6 95       	lsr	r31
    1ece:	87 95       	ror	r24
    1ed0:	77 95       	ror	r23
    1ed2:	67 95       	ror	r22
    1ed4:	b7 95       	ror	r27
    1ed6:	f1 11       	cpse	r31, r1
    1ed8:	f8 cf       	rjmp	.-16     	; 0x1eca <__floatsisf+0x1c>
    1eda:	fa f4       	brpl	.+62     	; 0x1f1a <__floatsisf+0x6c>
    1edc:	bb 0f       	add	r27, r27
    1ede:	11 f4       	brne	.+4      	; 0x1ee4 <__floatsisf+0x36>
    1ee0:	60 ff       	sbrs	r22, 0
    1ee2:	1b c0       	rjmp	.+54     	; 0x1f1a <__floatsisf+0x6c>
    1ee4:	6f 5f       	subi	r22, 0xFF	; 255
    1ee6:	7f 4f       	sbci	r23, 0xFF	; 255
    1ee8:	8f 4f       	sbci	r24, 0xFF	; 255
    1eea:	9f 4f       	sbci	r25, 0xFF	; 255
    1eec:	16 c0       	rjmp	.+44     	; 0x1f1a <__floatsisf+0x6c>
    1eee:	88 23       	and	r24, r24
    1ef0:	11 f0       	breq	.+4      	; 0x1ef6 <__floatsisf+0x48>
    1ef2:	96 e9       	ldi	r25, 0x96	; 150
    1ef4:	11 c0       	rjmp	.+34     	; 0x1f18 <__floatsisf+0x6a>
    1ef6:	77 23       	and	r23, r23
    1ef8:	21 f0       	breq	.+8      	; 0x1f02 <__floatsisf+0x54>
    1efa:	9e e8       	ldi	r25, 0x8E	; 142
    1efc:	87 2f       	mov	r24, r23
    1efe:	76 2f       	mov	r23, r22
    1f00:	05 c0       	rjmp	.+10     	; 0x1f0c <__floatsisf+0x5e>
    1f02:	66 23       	and	r22, r22
    1f04:	71 f0       	breq	.+28     	; 0x1f22 <__floatsisf+0x74>
    1f06:	96 e8       	ldi	r25, 0x86	; 134
    1f08:	86 2f       	mov	r24, r22
    1f0a:	70 e0       	ldi	r23, 0x00	; 0
    1f0c:	60 e0       	ldi	r22, 0x00	; 0
    1f0e:	2a f0       	brmi	.+10     	; 0x1f1a <__floatsisf+0x6c>
    1f10:	9a 95       	dec	r25
    1f12:	66 0f       	add	r22, r22
    1f14:	77 1f       	adc	r23, r23
    1f16:	88 1f       	adc	r24, r24
    1f18:	da f7       	brpl	.-10     	; 0x1f10 <__floatsisf+0x62>
    1f1a:	88 0f       	add	r24, r24
    1f1c:	96 95       	lsr	r25
    1f1e:	87 95       	ror	r24
    1f20:	97 f9       	bld	r25, 7
    1f22:	08 95       	ret

00001f24 <__fp_cmp>:
    1f24:	99 0f       	add	r25, r25
    1f26:	00 08       	sbc	r0, r0
    1f28:	55 0f       	add	r21, r21
    1f2a:	aa 0b       	sbc	r26, r26
    1f2c:	e0 e8       	ldi	r30, 0x80	; 128
    1f2e:	fe ef       	ldi	r31, 0xFE	; 254
    1f30:	16 16       	cp	r1, r22
    1f32:	17 06       	cpc	r1, r23
    1f34:	e8 07       	cpc	r30, r24
    1f36:	f9 07       	cpc	r31, r25
    1f38:	c0 f0       	brcs	.+48     	; 0x1f6a <__fp_cmp+0x46>
    1f3a:	12 16       	cp	r1, r18
    1f3c:	13 06       	cpc	r1, r19
    1f3e:	e4 07       	cpc	r30, r20
    1f40:	f5 07       	cpc	r31, r21
    1f42:	98 f0       	brcs	.+38     	; 0x1f6a <__fp_cmp+0x46>
    1f44:	62 1b       	sub	r22, r18
    1f46:	73 0b       	sbc	r23, r19
    1f48:	84 0b       	sbc	r24, r20
    1f4a:	95 0b       	sbc	r25, r21
    1f4c:	39 f4       	brne	.+14     	; 0x1f5c <__fp_cmp+0x38>
    1f4e:	0a 26       	eor	r0, r26
    1f50:	61 f0       	breq	.+24     	; 0x1f6a <__fp_cmp+0x46>
    1f52:	23 2b       	or	r18, r19
    1f54:	24 2b       	or	r18, r20
    1f56:	25 2b       	or	r18, r21
    1f58:	21 f4       	brne	.+8      	; 0x1f62 <__fp_cmp+0x3e>
    1f5a:	08 95       	ret
    1f5c:	0a 26       	eor	r0, r26
    1f5e:	09 f4       	brne	.+2      	; 0x1f62 <__fp_cmp+0x3e>
    1f60:	a1 40       	sbci	r26, 0x01	; 1
    1f62:	a6 95       	lsr	r26
    1f64:	8f ef       	ldi	r24, 0xFF	; 255
    1f66:	81 1d       	adc	r24, r1
    1f68:	81 1d       	adc	r24, r1
    1f6a:	08 95       	ret

00001f6c <__fp_inf>:
    1f6c:	97 f9       	bld	r25, 7
    1f6e:	9f 67       	ori	r25, 0x7F	; 127
    1f70:	80 e8       	ldi	r24, 0x80	; 128
    1f72:	70 e0       	ldi	r23, 0x00	; 0
    1f74:	60 e0       	ldi	r22, 0x00	; 0
    1f76:	08 95       	ret

00001f78 <__fp_nan>:
    1f78:	9f ef       	ldi	r25, 0xFF	; 255
    1f7a:	80 ec       	ldi	r24, 0xC0	; 192
    1f7c:	08 95       	ret

00001f7e <__fp_pscA>:
    1f7e:	00 24       	eor	r0, r0
    1f80:	0a 94       	dec	r0
    1f82:	16 16       	cp	r1, r22
    1f84:	17 06       	cpc	r1, r23
    1f86:	18 06       	cpc	r1, r24
    1f88:	09 06       	cpc	r0, r25
    1f8a:	08 95       	ret

00001f8c <__fp_pscB>:
    1f8c:	00 24       	eor	r0, r0
    1f8e:	0a 94       	dec	r0
    1f90:	12 16       	cp	r1, r18
    1f92:	13 06       	cpc	r1, r19
    1f94:	14 06       	cpc	r1, r20
    1f96:	05 06       	cpc	r0, r21
    1f98:	08 95       	ret

00001f9a <__fp_round>:
    1f9a:	09 2e       	mov	r0, r25
    1f9c:	03 94       	inc	r0
    1f9e:	00 0c       	add	r0, r0
    1fa0:	11 f4       	brne	.+4      	; 0x1fa6 <__fp_round+0xc>
    1fa2:	88 23       	and	r24, r24
    1fa4:	52 f0       	brmi	.+20     	; 0x1fba <__fp_round+0x20>
    1fa6:	bb 0f       	add	r27, r27
    1fa8:	40 f4       	brcc	.+16     	; 0x1fba <__fp_round+0x20>
    1faa:	bf 2b       	or	r27, r31
    1fac:	11 f4       	brne	.+4      	; 0x1fb2 <__fp_round+0x18>
    1fae:	60 ff       	sbrs	r22, 0
    1fb0:	04 c0       	rjmp	.+8      	; 0x1fba <__fp_round+0x20>
    1fb2:	6f 5f       	subi	r22, 0xFF	; 255
    1fb4:	7f 4f       	sbci	r23, 0xFF	; 255
    1fb6:	8f 4f       	sbci	r24, 0xFF	; 255
    1fb8:	9f 4f       	sbci	r25, 0xFF	; 255
    1fba:	08 95       	ret

00001fbc <__fp_split3>:
    1fbc:	57 fd       	sbrc	r21, 7
    1fbe:	90 58       	subi	r25, 0x80	; 128
    1fc0:	44 0f       	add	r20, r20
    1fc2:	55 1f       	adc	r21, r21
    1fc4:	59 f0       	breq	.+22     	; 0x1fdc <__fp_splitA+0x10>
    1fc6:	5f 3f       	cpi	r21, 0xFF	; 255
    1fc8:	71 f0       	breq	.+28     	; 0x1fe6 <__fp_splitA+0x1a>
    1fca:	47 95       	ror	r20

00001fcc <__fp_splitA>:
    1fcc:	88 0f       	add	r24, r24
    1fce:	97 fb       	bst	r25, 7
    1fd0:	99 1f       	adc	r25, r25
    1fd2:	61 f0       	breq	.+24     	; 0x1fec <__fp_splitA+0x20>
    1fd4:	9f 3f       	cpi	r25, 0xFF	; 255
    1fd6:	79 f0       	breq	.+30     	; 0x1ff6 <__fp_splitA+0x2a>
    1fd8:	87 95       	ror	r24
    1fda:	08 95       	ret
    1fdc:	12 16       	cp	r1, r18
    1fde:	13 06       	cpc	r1, r19
    1fe0:	14 06       	cpc	r1, r20
    1fe2:	55 1f       	adc	r21, r21
    1fe4:	f2 cf       	rjmp	.-28     	; 0x1fca <__fp_split3+0xe>
    1fe6:	46 95       	lsr	r20
    1fe8:	f1 df       	rcall	.-30     	; 0x1fcc <__fp_splitA>
    1fea:	08 c0       	rjmp	.+16     	; 0x1ffc <__fp_splitA+0x30>
    1fec:	16 16       	cp	r1, r22
    1fee:	17 06       	cpc	r1, r23
    1ff0:	18 06       	cpc	r1, r24
    1ff2:	99 1f       	adc	r25, r25
    1ff4:	f1 cf       	rjmp	.-30     	; 0x1fd8 <__fp_splitA+0xc>
    1ff6:	86 95       	lsr	r24
    1ff8:	71 05       	cpc	r23, r1
    1ffa:	61 05       	cpc	r22, r1
    1ffc:	08 94       	sec
    1ffe:	08 95       	ret

00002000 <__fp_zero>:
    2000:	e8 94       	clt

00002002 <__fp_szero>:
    2002:	bb 27       	eor	r27, r27
    2004:	66 27       	eor	r22, r22
    2006:	77 27       	eor	r23, r23
    2008:	cb 01       	movw	r24, r22
    200a:	97 f9       	bld	r25, 7
    200c:	08 95       	ret

0000200e <__gesf2>:
    200e:	8a df       	rcall	.-236    	; 0x1f24 <__fp_cmp>
    2010:	08 f4       	brcc	.+2      	; 0x2014 <__gesf2+0x6>
    2012:	8f ef       	ldi	r24, 0xFF	; 255
    2014:	08 95       	ret

00002016 <__mulsf3>:
    2016:	0b d0       	rcall	.+22     	; 0x202e <__mulsf3x>
    2018:	c0 cf       	rjmp	.-128    	; 0x1f9a <__fp_round>
    201a:	b1 df       	rcall	.-158    	; 0x1f7e <__fp_pscA>
    201c:	28 f0       	brcs	.+10     	; 0x2028 <__mulsf3+0x12>
    201e:	b6 df       	rcall	.-148    	; 0x1f8c <__fp_pscB>
    2020:	18 f0       	brcs	.+6      	; 0x2028 <__mulsf3+0x12>
    2022:	95 23       	and	r25, r21
    2024:	09 f0       	breq	.+2      	; 0x2028 <__mulsf3+0x12>
    2026:	a2 cf       	rjmp	.-188    	; 0x1f6c <__fp_inf>
    2028:	a7 cf       	rjmp	.-178    	; 0x1f78 <__fp_nan>
    202a:	11 24       	eor	r1, r1
    202c:	ea cf       	rjmp	.-44     	; 0x2002 <__fp_szero>

0000202e <__mulsf3x>:
    202e:	c6 df       	rcall	.-116    	; 0x1fbc <__fp_split3>
    2030:	a0 f3       	brcs	.-24     	; 0x201a <__mulsf3+0x4>

00002032 <__mulsf3_pse>:
    2032:	95 9f       	mul	r25, r21
    2034:	d1 f3       	breq	.-12     	; 0x202a <__mulsf3+0x14>
    2036:	95 0f       	add	r25, r21
    2038:	50 e0       	ldi	r21, 0x00	; 0
    203a:	55 1f       	adc	r21, r21
    203c:	62 9f       	mul	r22, r18
    203e:	f0 01       	movw	r30, r0
    2040:	72 9f       	mul	r23, r18
    2042:	bb 27       	eor	r27, r27
    2044:	f0 0d       	add	r31, r0
    2046:	b1 1d       	adc	r27, r1
    2048:	63 9f       	mul	r22, r19
    204a:	aa 27       	eor	r26, r26
    204c:	f0 0d       	add	r31, r0
    204e:	b1 1d       	adc	r27, r1
    2050:	aa 1f       	adc	r26, r26
    2052:	64 9f       	mul	r22, r20
    2054:	66 27       	eor	r22, r22
    2056:	b0 0d       	add	r27, r0
    2058:	a1 1d       	adc	r26, r1
    205a:	66 1f       	adc	r22, r22
    205c:	82 9f       	mul	r24, r18
    205e:	22 27       	eor	r18, r18
    2060:	b0 0d       	add	r27, r0
    2062:	a1 1d       	adc	r26, r1
    2064:	62 1f       	adc	r22, r18
    2066:	73 9f       	mul	r23, r19
    2068:	b0 0d       	add	r27, r0
    206a:	a1 1d       	adc	r26, r1
    206c:	62 1f       	adc	r22, r18
    206e:	83 9f       	mul	r24, r19
    2070:	a0 0d       	add	r26, r0
    2072:	61 1d       	adc	r22, r1
    2074:	22 1f       	adc	r18, r18
    2076:	74 9f       	mul	r23, r20
    2078:	33 27       	eor	r19, r19
    207a:	a0 0d       	add	r26, r0
    207c:	61 1d       	adc	r22, r1
    207e:	23 1f       	adc	r18, r19
    2080:	84 9f       	mul	r24, r20
    2082:	60 0d       	add	r22, r0
    2084:	21 1d       	adc	r18, r1
    2086:	82 2f       	mov	r24, r18
    2088:	76 2f       	mov	r23, r22
    208a:	6a 2f       	mov	r22, r26
    208c:	11 24       	eor	r1, r1
    208e:	9f 57       	subi	r25, 0x7F	; 127
    2090:	50 40       	sbci	r21, 0x00	; 0
    2092:	8a f0       	brmi	.+34     	; 0x20b6 <__mulsf3_pse+0x84>
    2094:	e1 f0       	breq	.+56     	; 0x20ce <__mulsf3_pse+0x9c>
    2096:	88 23       	and	r24, r24
    2098:	4a f0       	brmi	.+18     	; 0x20ac <__mulsf3_pse+0x7a>
    209a:	ee 0f       	add	r30, r30
    209c:	ff 1f       	adc	r31, r31
    209e:	bb 1f       	adc	r27, r27
    20a0:	66 1f       	adc	r22, r22
    20a2:	77 1f       	adc	r23, r23
    20a4:	88 1f       	adc	r24, r24
    20a6:	91 50       	subi	r25, 0x01	; 1
    20a8:	50 40       	sbci	r21, 0x00	; 0
    20aa:	a9 f7       	brne	.-22     	; 0x2096 <__mulsf3_pse+0x64>
    20ac:	9e 3f       	cpi	r25, 0xFE	; 254
    20ae:	51 05       	cpc	r21, r1
    20b0:	70 f0       	brcs	.+28     	; 0x20ce <__mulsf3_pse+0x9c>
    20b2:	5c cf       	rjmp	.-328    	; 0x1f6c <__fp_inf>
    20b4:	a6 cf       	rjmp	.-180    	; 0x2002 <__fp_szero>
    20b6:	5f 3f       	cpi	r21, 0xFF	; 255
    20b8:	ec f3       	brlt	.-6      	; 0x20b4 <__mulsf3_pse+0x82>
    20ba:	98 3e       	cpi	r25, 0xE8	; 232
    20bc:	dc f3       	brlt	.-10     	; 0x20b4 <__mulsf3_pse+0x82>
    20be:	86 95       	lsr	r24
    20c0:	77 95       	ror	r23
    20c2:	67 95       	ror	r22
    20c4:	b7 95       	ror	r27
    20c6:	f7 95       	ror	r31
    20c8:	e7 95       	ror	r30
    20ca:	9f 5f       	subi	r25, 0xFF	; 255
    20cc:	c1 f7       	brne	.-16     	; 0x20be <__mulsf3_pse+0x8c>
    20ce:	fe 2b       	or	r31, r30
    20d0:	88 0f       	add	r24, r24
    20d2:	91 1d       	adc	r25, r1
    20d4:	96 95       	lsr	r25
    20d6:	87 95       	ror	r24
    20d8:	97 f9       	bld	r25, 7
    20da:	08 95       	ret

000020dc <__udivmodhi4>:
    20dc:	aa 1b       	sub	r26, r26
    20de:	bb 1b       	sub	r27, r27
    20e0:	51 e1       	ldi	r21, 0x11	; 17
    20e2:	07 c0       	rjmp	.+14     	; 0x20f2 <__udivmodhi4_ep>

000020e4 <__udivmodhi4_loop>:
    20e4:	aa 1f       	adc	r26, r26
    20e6:	bb 1f       	adc	r27, r27
    20e8:	a6 17       	cp	r26, r22
    20ea:	b7 07       	cpc	r27, r23
    20ec:	10 f0       	brcs	.+4      	; 0x20f2 <__udivmodhi4_ep>
    20ee:	a6 1b       	sub	r26, r22
    20f0:	b7 0b       	sbc	r27, r23

000020f2 <__udivmodhi4_ep>:
    20f2:	88 1f       	adc	r24, r24
    20f4:	99 1f       	adc	r25, r25
    20f6:	5a 95       	dec	r21
    20f8:	a9 f7       	brne	.-22     	; 0x20e4 <__udivmodhi4_loop>
    20fa:	80 95       	com	r24
    20fc:	90 95       	com	r25
    20fe:	bc 01       	movw	r22, r24
    2100:	cd 01       	movw	r24, r26
    2102:	08 95       	ret

00002104 <__tablejump_elpm__>:
    2104:	07 90       	elpm	r0, Z+
    2106:	f6 91       	elpm	r31, Z
    2108:	e0 2d       	mov	r30, r0
    210a:	19 94       	eijmp

0000210c <itoa>:
    210c:	fb 01       	movw	r30, r22
    210e:	9f 01       	movw	r18, r30
    2110:	e8 94       	clt
    2112:	42 30       	cpi	r20, 0x02	; 2
    2114:	bc f0       	brlt	.+46     	; 0x2144 <itoa+0x38>
    2116:	45 32       	cpi	r20, 0x25	; 37
    2118:	ac f4       	brge	.+42     	; 0x2144 <itoa+0x38>
    211a:	4a 30       	cpi	r20, 0x0A	; 10
    211c:	29 f4       	brne	.+10     	; 0x2128 <itoa+0x1c>
    211e:	97 fb       	bst	r25, 7
    2120:	1e f4       	brtc	.+6      	; 0x2128 <itoa+0x1c>
    2122:	90 95       	com	r25
    2124:	81 95       	neg	r24
    2126:	9f 4f       	sbci	r25, 0xFF	; 255
    2128:	64 2f       	mov	r22, r20
    212a:	77 27       	eor	r23, r23
    212c:	d7 df       	rcall	.-82     	; 0x20dc <__udivmodhi4>
    212e:	80 5d       	subi	r24, 0xD0	; 208
    2130:	8a 33       	cpi	r24, 0x3A	; 58
    2132:	0c f0       	brlt	.+2      	; 0x2136 <itoa+0x2a>
    2134:	89 5d       	subi	r24, 0xD9	; 217
    2136:	81 93       	st	Z+, r24
    2138:	cb 01       	movw	r24, r22
    213a:	00 97       	sbiw	r24, 0x00	; 0
    213c:	a9 f7       	brne	.-22     	; 0x2128 <itoa+0x1c>
    213e:	16 f4       	brtc	.+4      	; 0x2144 <itoa+0x38>
    2140:	5d e2       	ldi	r21, 0x2D	; 45
    2142:	51 93       	st	Z+, r21
    2144:	10 82       	st	Z, r1
    2146:	c9 01       	movw	r24, r18
    2148:	00 c0       	rjmp	.+0      	; 0x214a <strrev>

0000214a <strrev>:
    214a:	dc 01       	movw	r26, r24
    214c:	fc 01       	movw	r30, r24
    214e:	67 2f       	mov	r22, r23
    2150:	71 91       	ld	r23, Z+
    2152:	77 23       	and	r23, r23
    2154:	e1 f7       	brne	.-8      	; 0x214e <strrev+0x4>
    2156:	32 97       	sbiw	r30, 0x02	; 2
    2158:	04 c0       	rjmp	.+8      	; 0x2162 <strrev+0x18>
    215a:	7c 91       	ld	r23, X
    215c:	6d 93       	st	X+, r22
    215e:	70 83       	st	Z, r23
    2160:	62 91       	ld	r22, -Z
    2162:	ae 17       	cp	r26, r30
    2164:	bf 07       	cpc	r27, r31
    2166:	c8 f3       	brcs	.-14     	; 0x215a <strrev+0x10>
    2168:	08 95       	ret

0000216a <_exit>:
    216a:	f8 94       	cli

0000216c <__stop_program>:
    216c:	ff cf       	rjmp	.-2      	; 0x216c <__stop_program>
