
Incubator.elf:     file format elf32-avr

Sections:
Idx Name          Size      VMA       LMA       File off  Algn
  0 .data         000000a2  00800200  00001b58  00001bec  2**0
                  CONTENTS, ALLOC, LOAD, DATA
  1 .text         00001b58  00000000  00000000  00000094  2**1
                  CONTENTS, ALLOC, LOAD, READONLY, CODE
  2 .bss          00000035  008002a2  008002a2  00001c8e  2**0
                  ALLOC
  3 .stab         0000267c  00000000  00000000  00001c90  2**2
                  CONTENTS, READONLY, DEBUGGING
  4 .stabstr      000009ac  00000000  00000000  0000430c  2**0
                  CONTENTS, READONLY, DEBUGGING
  5 .comment      0000002f  00000000  00000000  00004cb8  2**0
                  CONTENTS, READONLY
  6 .debug_aranges 00000240  00000000  00000000  00004ce7  2**0
                  CONTENTS, READONLY, DEBUGGING
  7 .debug_info   00002bc7  00000000  00000000  00004f27  2**0
                  CONTENTS, READONLY, DEBUGGING
  8 .debug_abbrev 00000a91  00000000  00000000  00007aee  2**0
                  CONTENTS, READONLY, DEBUGGING
  9 .debug_line   0000197e  00000000  00000000  0000857f  2**0
                  CONTENTS, READONLY, DEBUGGING
 10 .debug_frame  000006f0  00000000  00000000  00009f00  2**2
                  CONTENTS, READONLY, DEBUGGING
 11 .debug_str    00000b1e  00000000  00000000  0000a5f0  2**0
                  CONTENTS, READONLY, DEBUGGING
 12 .debug_loc    0000231b  00000000  00000000  0000b10e  2**0
                  CONTENTS, READONLY, DEBUGGING
 13 .debug_ranges 00000210  00000000  00000000  0000d429  2**0
                  CONTENTS, READONLY, DEBUGGING

Disassembly of section .text:

00000000 <__vectors>:
       0:	72 c0       	rjmp	.+228    	; 0xe6 <__ctors_end>
       2:	00 00       	nop
       4:	a1 c0       	rjmp	.+322    	; 0x148 <__bad_interrupt>
       6:	00 00       	nop
       8:	9f c0       	rjmp	.+318    	; 0x148 <__bad_interrupt>
       a:	00 00       	nop
       c:	9d c0       	rjmp	.+314    	; 0x148 <__bad_interrupt>
       e:	00 00       	nop
      10:	9b c0       	rjmp	.+310    	; 0x148 <__bad_interrupt>
      12:	00 00       	nop
      14:	99 c0       	rjmp	.+306    	; 0x148 <__bad_interrupt>
      16:	00 00       	nop
      18:	97 c0       	rjmp	.+302    	; 0x148 <__bad_interrupt>
      1a:	00 00       	nop
      1c:	95 c0       	rjmp	.+298    	; 0x148 <__bad_interrupt>
      1e:	00 00       	nop
      20:	93 c0       	rjmp	.+294    	; 0x148 <__bad_interrupt>
      22:	00 00       	nop
      24:	91 c0       	rjmp	.+290    	; 0x148 <__bad_interrupt>
      26:	00 00       	nop
      28:	8f c0       	rjmp	.+286    	; 0x148 <__bad_interrupt>
      2a:	00 00       	nop
      2c:	8d c0       	rjmp	.+282    	; 0x148 <__bad_interrupt>
      2e:	00 00       	nop
      30:	8b c0       	rjmp	.+278    	; 0x148 <__bad_interrupt>
      32:	00 00       	nop
      34:	89 c0       	rjmp	.+274    	; 0x148 <__bad_interrupt>
      36:	00 00       	nop
      38:	87 c0       	rjmp	.+270    	; 0x148 <__bad_interrupt>
      3a:	00 00       	nop
      3c:	85 c0       	rjmp	.+266    	; 0x148 <__bad_interrupt>
      3e:	00 00       	nop
      40:	83 c0       	rjmp	.+262    	; 0x148 <__bad_interrupt>
      42:	00 00       	nop
      44:	81 c0       	rjmp	.+258    	; 0x148 <__bad_interrupt>
      46:	00 00       	nop
      48:	7f c0       	rjmp	.+254    	; 0x148 <__bad_interrupt>
      4a:	00 00       	nop
      4c:	7d c0       	rjmp	.+250    	; 0x148 <__bad_interrupt>
      4e:	00 00       	nop
      50:	7b c0       	rjmp	.+246    	; 0x148 <__bad_interrupt>
      52:	00 00       	nop
      54:	79 c0       	rjmp	.+242    	; 0x148 <__bad_interrupt>
      56:	00 00       	nop
      58:	77 c0       	rjmp	.+238    	; 0x148 <__bad_interrupt>
      5a:	00 00       	nop
      5c:	75 c0       	rjmp	.+234    	; 0x148 <__bad_interrupt>
      5e:	00 00       	nop
      60:	73 c0       	rjmp	.+230    	; 0x148 <__bad_interrupt>
      62:	00 00       	nop
      64:	71 c0       	rjmp	.+226    	; 0x148 <__bad_interrupt>
      66:	00 00       	nop
      68:	6f c0       	rjmp	.+222    	; 0x148 <__bad_interrupt>
      6a:	00 00       	nop
      6c:	6d c0       	rjmp	.+218    	; 0x148 <__bad_interrupt>
      6e:	00 00       	nop
      70:	6b c0       	rjmp	.+214    	; 0x148 <__bad_interrupt>
      72:	00 00       	nop
      74:	69 c0       	rjmp	.+210    	; 0x148 <__bad_interrupt>
      76:	00 00       	nop
      78:	67 c0       	rjmp	.+206    	; 0x148 <__bad_interrupt>
      7a:	00 00       	nop
      7c:	65 c0       	rjmp	.+202    	; 0x148 <__bad_interrupt>
      7e:	00 00       	nop
      80:	7d c6       	rjmp	.+3322   	; 0xd7c <__vector_32>
      82:	00 00       	nop
      84:	61 c0       	rjmp	.+194    	; 0x148 <__bad_interrupt>
      86:	00 00       	nop
      88:	5f c0       	rjmp	.+190    	; 0x148 <__bad_interrupt>
      8a:	00 00       	nop
      8c:	5d c0       	rjmp	.+186    	; 0x148 <__bad_interrupt>
      8e:	00 00       	nop
      90:	5b c0       	rjmp	.+182    	; 0x148 <__bad_interrupt>
      92:	00 00       	nop
      94:	59 c0       	rjmp	.+178    	; 0x148 <__bad_interrupt>
      96:	00 00       	nop
      98:	57 c0       	rjmp	.+174    	; 0x148 <__bad_interrupt>
      9a:	00 00       	nop
      9c:	55 c0       	rjmp	.+170    	; 0x148 <__bad_interrupt>
      9e:	00 00       	nop
      a0:	53 c0       	rjmp	.+166    	; 0x148 <__bad_interrupt>
      a2:	00 00       	nop
      a4:	51 c0       	rjmp	.+162    	; 0x148 <__bad_interrupt>
      a6:	00 00       	nop
      a8:	4f c0       	rjmp	.+158    	; 0x148 <__bad_interrupt>
      aa:	00 00       	nop
      ac:	4d c0       	rjmp	.+154    	; 0x148 <__bad_interrupt>
      ae:	00 00       	nop
      b0:	4b c0       	rjmp	.+150    	; 0x148 <__bad_interrupt>
      b2:	00 00       	nop
      b4:	49 c0       	rjmp	.+146    	; 0x148 <__bad_interrupt>
      b6:	00 00       	nop
      b8:	47 c0       	rjmp	.+142    	; 0x148 <__bad_interrupt>
      ba:	00 00       	nop
      bc:	4c c6       	rjmp	.+3224   	; 0xd56 <__vector_47>
      be:	00 00       	nop
      c0:	43 c0       	rjmp	.+134    	; 0x148 <__bad_interrupt>
      c2:	00 00       	nop
      c4:	41 c0       	rjmp	.+130    	; 0x148 <__bad_interrupt>
      c6:	00 00       	nop
      c8:	3f c0       	rjmp	.+126    	; 0x148 <__bad_interrupt>
      ca:	00 00       	nop
      cc:	3d c0       	rjmp	.+122    	; 0x148 <__bad_interrupt>
      ce:	00 00       	nop
      d0:	3b c0       	rjmp	.+118    	; 0x148 <__bad_interrupt>
      d2:	00 00       	nop
      d4:	39 c0       	rjmp	.+114    	; 0x148 <__bad_interrupt>
      d6:	00 00       	nop
      d8:	37 c0       	rjmp	.+110    	; 0x148 <__bad_interrupt>
      da:	00 00       	nop
      dc:	35 c0       	rjmp	.+106    	; 0x148 <__bad_interrupt>
      de:	00 00       	nop
      e0:	33 c0       	rjmp	.+102    	; 0x148 <__bad_interrupt>
	...

000000e4 <__ctors_start>:
      e4:	d4 09       	sbc	r29, r4

000000e6 <__ctors_end>:
      e6:	11 24       	eor	r1, r1
      e8:	1f be       	out	0x3f, r1	; 63
      ea:	cf ef       	ldi	r28, 0xFF	; 255
      ec:	d1 e2       	ldi	r29, 0x21	; 33
      ee:	de bf       	out	0x3e, r29	; 62
      f0:	cd bf       	out	0x3d, r28	; 61
      f2:	00 e0       	ldi	r16, 0x00	; 0
      f4:	0c bf       	out	0x3c, r16	; 60

000000f6 <__do_copy_data>:
      f6:	12 e0       	ldi	r17, 0x02	; 2
      f8:	a0 e0       	ldi	r26, 0x00	; 0
      fa:	b2 e0       	ldi	r27, 0x02	; 2
      fc:	e8 e5       	ldi	r30, 0x58	; 88
      fe:	fb e1       	ldi	r31, 0x1B	; 27
     100:	00 e0       	ldi	r16, 0x00	; 0
     102:	0b bf       	out	0x3b, r16	; 59
     104:	02 c0       	rjmp	.+4      	; 0x10a <__do_copy_data+0x14>
     106:	07 90       	elpm	r0, Z+
     108:	0d 92       	st	X+, r0
     10a:	a2 3a       	cpi	r26, 0xA2	; 162
     10c:	b1 07       	cpc	r27, r17
     10e:	d9 f7       	brne	.-10     	; 0x106 <__do_copy_data+0x10>

00000110 <__do_clear_bss>:
     110:	22 e0       	ldi	r18, 0x02	; 2
     112:	a2 ea       	ldi	r26, 0xA2	; 162
     114:	b2 e0       	ldi	r27, 0x02	; 2
     116:	01 c0       	rjmp	.+2      	; 0x11a <.do_clear_bss_start>

00000118 <.do_clear_bss_loop>:
     118:	1d 92       	st	X+, r1

0000011a <.do_clear_bss_start>:
     11a:	a7 3d       	cpi	r26, 0xD7	; 215
     11c:	b2 07       	cpc	r27, r18
     11e:	e1 f7       	brne	.-8      	; 0x118 <.do_clear_bss_loop>

00000120 <__do_global_ctors>:
     120:	10 e0       	ldi	r17, 0x00	; 0
     122:	c6 ee       	ldi	r28, 0xE6	; 230
     124:	d0 e0       	ldi	r29, 0x00	; 0
     126:	00 e0       	ldi	r16, 0x00	; 0
     128:	06 c0       	rjmp	.+12     	; 0x136 <__do_global_ctors+0x16>
     12a:	22 97       	sbiw	r28, 0x02	; 2
     12c:	01 09       	sbc	r16, r1
     12e:	fe 01       	movw	r30, r28
     130:	0b bf       	out	0x3b, r16	; 59
     132:	0e 94 77 0d 	call	0x1aee	; 0x1aee <__tablejump_elpm__>
     136:	c4 3e       	cpi	r28, 0xE4	; 228
     138:	d1 07       	cpc	r29, r17
     13a:	80 e0       	ldi	r24, 0x00	; 0
     13c:	08 07       	cpc	r16, r24
     13e:	a9 f7       	brne	.-22     	; 0x12a <__do_global_ctors+0xa>
     140:	0e 94 c1 08 	call	0x1182	; 0x1182 <main>
     144:	0c 94 aa 0d 	jmp	0x1b54	; 0x1b54 <_exit>

00000148 <__bad_interrupt>:
     148:	5b cf       	rjmp	.-330    	; 0x0 <__vectors>

0000014a <_ZN8Controls12initControlsEv>:
 */ 
#include "Controls.h"


void Controls::initControls(){
	DDR(FAN_PORT) |= (1 << FAN_PORT);
     14a:	25 b1       	in	r18, 0x05	; 5
     14c:	44 b1       	in	r20, 0x04	; 4
     14e:	81 e0       	ldi	r24, 0x01	; 1
     150:	90 e0       	ldi	r25, 0x00	; 0
     152:	bc 01       	movw	r22, r24
     154:	02 c0       	rjmp	.+4      	; 0x15a <_ZN8Controls12initControlsEv+0x10>
     156:	66 0f       	add	r22, r22
     158:	77 1f       	adc	r23, r23
     15a:	2a 95       	dec	r18
     15c:	e2 f7       	brpl	.-8      	; 0x156 <_ZN8Controls12initControlsEv+0xc>
     15e:	9b 01       	movw	r18, r22
     160:	24 2b       	or	r18, r20
     162:	24 b9       	out	0x04, r18	; 4
	DDR(HEATER_PORT) |= (1 << HEATER_PORT);
     164:	35 b1       	in	r19, 0x05	; 5
     166:	24 b1       	in	r18, 0x04	; 4
     168:	02 c0       	rjmp	.+4      	; 0x16e <_ZN8Controls12initControlsEv+0x24>
     16a:	88 0f       	add	r24, r24
     16c:	99 1f       	adc	r25, r25
     16e:	3a 95       	dec	r19
     170:	e2 f7       	brpl	.-8      	; 0x16a <_ZN8Controls12initControlsEv+0x20>
     172:	82 2b       	or	r24, r18
     174:	84 b9       	out	0x04, r24	; 4
	DDRB |= (1 << PINB7) | (1 << PINB4);
     176:	84 b1       	in	r24, 0x04	; 4
     178:	80 69       	ori	r24, 0x90	; 144
     17a:	84 b9       	out	0x04, r24	; 4
     17c:	08 95       	ret

0000017e <_ZN8Controls8startFanEv>:
	
}

void Controls::startFan(){
	FAN_PORT |= (1 << FAN_PIN);
     17e:	2f 9a       	sbi	0x05, 7	; 5
	PORTB |= (1 << PINB7) | (1 << PINB4);
     180:	85 b1       	in	r24, 0x05	; 5
     182:	80 69       	ori	r24, 0x90	; 144
     184:	85 b9       	out	0x05, r24	; 5
     186:	08 95       	ret

00000188 <_ZN8Controls11startHeaterEv>:
}

void Controls::startHeater() {
	HEATER_PORT |= (1 << HEATER_PIN);
     188:	2c 9a       	sbi	0x05, 4	; 5
     18a:	08 95       	ret

0000018c <_ZN8Controls7stopFanEv>:
}

void Controls::stopFan() {
	FAN_PORT &=~ (1 << FAN_PIN);
     18c:	2f 98       	cbi	0x05, 7	; 5
	PORTB &=~ ((1 << PINB7) | (1 << PINB4));
     18e:	85 b1       	in	r24, 0x05	; 5
     190:	8f 76       	andi	r24, 0x6F	; 111
     192:	85 b9       	out	0x05, r24	; 5
     194:	08 95       	ret

00000196 <_ZN8Controls10stopHeaterEv>:
}

void Controls::stopHeater() {
	HEATER_PORT &=~ (1 << HEATER_PIN);
     196:	2c 98       	cbi	0x05, 4	; 5
     198:	08 95       	ret

0000019a <_ZL9lcd_writeh>:
			} 
		} 
    }
}

void init_devices() {
     19a:	95 ed       	ldi	r25, 0xD5	; 213
     19c:	9a 95       	dec	r25
     19e:	f1 f7       	brne	.-4      	; 0x19c <_ZL9lcd_writeh+0x2>
     1a0:	00 00       	nop
     1a2:	88 23       	and	r24, r24
     1a4:	14 f4       	brge	.+4      	; 0x1aa <_ZL9lcd_writeh+0x10>
     1a6:	a5 9a       	sbi	0x14, 5	; 20
     1a8:	01 c0       	rjmp	.+2      	; 0x1ac <_ZL9lcd_writeh+0x12>
     1aa:	a5 98       	cbi	0x14, 5	; 20
     1ac:	86 ff       	sbrs	r24, 6
     1ae:	02 c0       	rjmp	.+4      	; 0x1b4 <_ZL9lcd_writeh+0x1a>
     1b0:	73 9a       	sbi	0x0e, 3	; 14
     1b2:	01 c0       	rjmp	.+2      	; 0x1b6 <_ZL9lcd_writeh+0x1c>
     1b4:	73 98       	cbi	0x0e, 3	; 14
     1b6:	85 ff       	sbrs	r24, 5
     1b8:	06 c0       	rjmp	.+12     	; 0x1c6 <_ZL9lcd_writeh+0x2c>
     1ba:	e2 e0       	ldi	r30, 0x02	; 2
     1bc:	f1 e0       	ldi	r31, 0x01	; 1
     1be:	90 81       	ld	r25, Z
     1c0:	98 60       	ori	r25, 0x08	; 8
     1c2:	90 83       	st	Z, r25
     1c4:	05 c0       	rjmp	.+10     	; 0x1d0 <_ZL9lcd_writeh+0x36>
     1c6:	e2 e0       	ldi	r30, 0x02	; 2
     1c8:	f1 e0       	ldi	r31, 0x01	; 1
     1ca:	90 81       	ld	r25, Z
     1cc:	97 7f       	andi	r25, 0xF7	; 247
     1ce:	90 83       	st	Z, r25
     1d0:	84 ff       	sbrs	r24, 4
     1d2:	06 c0       	rjmp	.+12     	; 0x1e0 <_ZL9lcd_writeh+0x46>
     1d4:	e2 e0       	ldi	r30, 0x02	; 2
     1d6:	f1 e0       	ldi	r31, 0x01	; 1
     1d8:	90 81       	ld	r25, Z
     1da:	90 61       	ori	r25, 0x10	; 16
     1dc:	90 83       	st	Z, r25
     1de:	05 c0       	rjmp	.+10     	; 0x1ea <_ZL9lcd_writeh+0x50>
     1e0:	e2 e0       	ldi	r30, 0x02	; 2
     1e2:	f1 e0       	ldi	r31, 0x01	; 1
     1e4:	90 81       	ld	r25, Z
     1e6:	9f 7e       	andi	r25, 0xEF	; 239
     1e8:	90 83       	st	Z, r25
     1ea:	e2 e0       	ldi	r30, 0x02	; 2
     1ec:	f1 e0       	ldi	r31, 0x01	; 1
     1ee:	90 81       	ld	r25, Z
     1f0:	90 62       	ori	r25, 0x20	; 32
     1f2:	90 83       	st	Z, r25
     1f4:	90 81       	ld	r25, Z
     1f6:	9f 7d       	andi	r25, 0xDF	; 223
     1f8:	90 83       	st	Z, r25
     1fa:	83 ff       	sbrs	r24, 3
     1fc:	02 c0       	rjmp	.+4      	; 0x202 <_ZL9lcd_writeh+0x68>
     1fe:	a5 9a       	sbi	0x14, 5	; 20
     200:	01 c0       	rjmp	.+2      	; 0x204 <_ZL9lcd_writeh+0x6a>
     202:	a5 98       	cbi	0x14, 5	; 20
     204:	82 ff       	sbrs	r24, 2
     206:	02 c0       	rjmp	.+4      	; 0x20c <_ZL9lcd_writeh+0x72>
     208:	73 9a       	sbi	0x0e, 3	; 14
     20a:	01 c0       	rjmp	.+2      	; 0x20e <_ZL9lcd_writeh+0x74>
     20c:	73 98       	cbi	0x0e, 3	; 14
     20e:	81 ff       	sbrs	r24, 1
     210:	06 c0       	rjmp	.+12     	; 0x21e <_ZL9lcd_writeh+0x84>
     212:	e2 e0       	ldi	r30, 0x02	; 2
     214:	f1 e0       	ldi	r31, 0x01	; 1
     216:	90 81       	ld	r25, Z
     218:	98 60       	ori	r25, 0x08	; 8
     21a:	90 83       	st	Z, r25
     21c:	05 c0       	rjmp	.+10     	; 0x228 <_ZL9lcd_writeh+0x8e>
     21e:	e2 e0       	ldi	r30, 0x02	; 2
     220:	f1 e0       	ldi	r31, 0x01	; 1
     222:	90 81       	ld	r25, Z
     224:	97 7f       	andi	r25, 0xF7	; 247
     226:	90 83       	st	Z, r25
     228:	80 ff       	sbrs	r24, 0
     22a:	06 c0       	rjmp	.+12     	; 0x238 <_ZL9lcd_writeh+0x9e>
     22c:	e2 e0       	ldi	r30, 0x02	; 2
     22e:	f1 e0       	ldi	r31, 0x01	; 1
     230:	80 81       	ld	r24, Z
     232:	80 61       	ori	r24, 0x10	; 16
     234:	80 83       	st	Z, r24
     236:	05 c0       	rjmp	.+10     	; 0x242 <_ZL9lcd_writeh+0xa8>
     238:	e2 e0       	ldi	r30, 0x02	; 2
     23a:	f1 e0       	ldi	r31, 0x01	; 1
     23c:	80 81       	ld	r24, Z
     23e:	8f 7e       	andi	r24, 0xEF	; 239
     240:	80 83       	st	Z, r24
     242:	e2 e0       	ldi	r30, 0x02	; 2
     244:	f1 e0       	ldi	r31, 0x01	; 1
     246:	80 81       	ld	r24, Z
     248:	80 62       	ori	r24, 0x20	; 32
     24a:	80 83       	st	Z, r24
     24c:	80 81       	ld	r24, Z
     24e:	8f 7d       	andi	r24, 0xDF	; 223
     250:	80 83       	st	Z, r24
     252:	08 95       	ret

00000254 <_Z9lcd_clearv>:
     254:	e2 e0       	ldi	r30, 0x02	; 2
     256:	f1 e0       	ldi	r31, 0x01	; 1
     258:	80 81       	ld	r24, Z
     25a:	8f 7b       	andi	r24, 0xBF	; 191
     25c:	80 83       	st	Z, r24
     25e:	81 e0       	ldi	r24, 0x01	; 1
     260:	9c df       	rcall	.-200    	; 0x19a <_ZL9lcd_writeh>
     262:	8f e3       	ldi	r24, 0x3F	; 63
     264:	9f e1       	ldi	r25, 0x1F	; 31
     266:	01 97       	sbiw	r24, 0x01	; 1
     268:	f1 f7       	brne	.-4      	; 0x266 <_Z9lcd_clearv+0x12>
     26a:	00 c0       	rjmp	.+0      	; 0x26c <_Z9lcd_clearv+0x18>
     26c:	00 00       	nop
     26e:	08 95       	ret

00000270 <_Z8lcd_putsPKc>:
     270:	cf 93       	push	r28
     272:	df 93       	push	r29
     274:	ec 01       	movw	r28, r24
     276:	e2 e0       	ldi	r30, 0x02	; 2
     278:	f1 e0       	ldi	r31, 0x01	; 1
     27a:	80 81       	ld	r24, Z
     27c:	80 64       	ori	r24, 0x40	; 64
     27e:	80 83       	st	Z, r24
     280:	88 81       	ld	r24, Y
     282:	88 23       	and	r24, r24
     284:	29 f0       	breq	.+10     	; 0x290 <_Z8lcd_putsPKc+0x20>
     286:	21 96       	adiw	r28, 0x01	; 1
     288:	88 df       	rcall	.-240    	; 0x19a <_ZL9lcd_writeh>
     28a:	89 91       	ld	r24, Y+
     28c:	81 11       	cpse	r24, r1
     28e:	fc cf       	rjmp	.-8      	; 0x288 <_Z8lcd_putsPKc+0x18>
     290:	df 91       	pop	r29
     292:	cf 91       	pop	r28
     294:	08 95       	ret

00000296 <_Z9lcd_putchc>:
     296:	e2 e0       	ldi	r30, 0x02	; 2
     298:	f1 e0       	ldi	r31, 0x01	; 1
     29a:	90 81       	ld	r25, Z
     29c:	90 64       	ori	r25, 0x40	; 64
     29e:	90 83       	st	Z, r25
     2a0:	7c cf       	rjmp	.-264    	; 0x19a <_ZL9lcd_writeh>

000002a2 <_Z10lcd_gotoxyhh>:
     2a2:	e2 e0       	ldi	r30, 0x02	; 2
     2a4:	f1 e0       	ldi	r31, 0x01	; 1
     2a6:	90 81       	ld	r25, Z
     2a8:	9f 7b       	andi	r25, 0xBF	; 191
     2aa:	90 83       	st	Z, r25
     2ac:	61 11       	cpse	r22, r1
     2ae:	02 c0       	rjmp	.+4      	; 0x2b4 <_Z10lcd_gotoxyhh+0x12>
     2b0:	80 58       	subi	r24, 0x80	; 128
     2b2:	73 cf       	rjmp	.-282    	; 0x19a <_ZL9lcd_writeh>
     2b4:	61 30       	cpi	r22, 0x01	; 1
     2b6:	11 f4       	brne	.+4      	; 0x2bc <_Z10lcd_gotoxyhh+0x1a>
     2b8:	80 54       	subi	r24, 0x40	; 64
     2ba:	6f cf       	rjmp	.-290    	; 0x19a <_ZL9lcd_writeh>
     2bc:	62 30       	cpi	r22, 0x02	; 2
     2be:	11 f4       	brne	.+4      	; 0x2c4 <_Z10lcd_gotoxyhh+0x22>
     2c0:	8c 56       	subi	r24, 0x6C	; 108
     2c2:	6b cf       	rjmp	.-298    	; 0x19a <_ZL9lcd_writeh>
     2c4:	8c 52       	subi	r24, 0x2C	; 44
     2c6:	69 cf       	rjmp	.-302    	; 0x19a <_ZL9lcd_writeh>

000002c8 <_Z8lcd_initv>:
     2c8:	e1 e0       	ldi	r30, 0x01	; 1
     2ca:	f1 e0       	ldi	r31, 0x01	; 1
     2cc:	80 81       	ld	r24, Z
     2ce:	80 64       	ori	r24, 0x40	; 64
     2d0:	80 83       	st	Z, r24
     2d2:	80 81       	ld	r24, Z
     2d4:	80 62       	ori	r24, 0x20	; 32
     2d6:	80 83       	st	Z, r24
     2d8:	9d 9a       	sbi	0x13, 5	; 19
     2da:	6b 9a       	sbi	0x0d, 3	; 13
     2dc:	80 81       	ld	r24, Z
     2de:	88 60       	ori	r24, 0x08	; 8
     2e0:	80 83       	st	Z, r24
     2e2:	80 81       	ld	r24, Z
     2e4:	80 61       	ori	r24, 0x10	; 16
     2e6:	80 83       	st	Z, r24
     2e8:	e2 e0       	ldi	r30, 0x02	; 2
     2ea:	f1 e0       	ldi	r31, 0x01	; 1
     2ec:	80 81       	ld	r24, Z
     2ee:	8f 7b       	andi	r24, 0xBF	; 191
     2f0:	80 83       	st	Z, r24
     2f2:	80 81       	ld	r24, Z
     2f4:	8f 7d       	andi	r24, 0xDF	; 223
     2f6:	80 83       	st	Z, r24
     2f8:	8f e5       	ldi	r24, 0x5F	; 95
     2fa:	9a ee       	ldi	r25, 0xEA	; 234
     2fc:	01 97       	sbiw	r24, 0x01	; 1
     2fe:	f1 f7       	brne	.-4      	; 0x2fc <_Z8lcd_initv+0x34>
     300:	00 c0       	rjmp	.+0      	; 0x302 <_Z8lcd_initv+0x3a>
     302:	00 00       	nop
     304:	80 81       	ld	r24, Z
     306:	80 61       	ori	r24, 0x10	; 16
     308:	80 83       	st	Z, r24
     30a:	80 81       	ld	r24, Z
     30c:	88 60       	ori	r24, 0x08	; 8
     30e:	80 83       	st	Z, r24
     310:	73 98       	cbi	0x0e, 3	; 14
     312:	a5 98       	cbi	0x14, 5	; 20
     314:	80 81       	ld	r24, Z
     316:	80 62       	ori	r24, 0x20	; 32
     318:	80 83       	st	Z, r24
     31a:	80 81       	ld	r24, Z
     31c:	8f 7d       	andi	r24, 0xDF	; 223
     31e:	80 83       	st	Z, r24
     320:	8f e1       	ldi	r24, 0x1F	; 31
     322:	9e e4       	ldi	r25, 0x4E	; 78
     324:	01 97       	sbiw	r24, 0x01	; 1
     326:	f1 f7       	brne	.-4      	; 0x324 <_Z8lcd_initv+0x5c>
     328:	00 c0       	rjmp	.+0      	; 0x32a <_Z8lcd_initv+0x62>
     32a:	00 00       	nop
     32c:	80 81       	ld	r24, Z
     32e:	80 62       	ori	r24, 0x20	; 32
     330:	80 83       	st	Z, r24
     332:	80 81       	ld	r24, Z
     334:	8f 7d       	andi	r24, 0xDF	; 223
     336:	80 83       	st	Z, r24
     338:	8f e1       	ldi	r24, 0x1F	; 31
     33a:	93 e0       	ldi	r25, 0x03	; 3
     33c:	01 97       	sbiw	r24, 0x01	; 1
     33e:	f1 f7       	brne	.-4      	; 0x33c <_Z8lcd_initv+0x74>
     340:	00 c0       	rjmp	.+0      	; 0x342 <_Z8lcd_initv+0x7a>
     342:	00 00       	nop
     344:	80 81       	ld	r24, Z
     346:	80 62       	ori	r24, 0x20	; 32
     348:	80 83       	st	Z, r24
     34a:	80 81       	ld	r24, Z
     34c:	8f 7d       	andi	r24, 0xDF	; 223
     34e:	80 83       	st	Z, r24
     350:	8f e1       	ldi	r24, 0x1F	; 31
     352:	93 e0       	ldi	r25, 0x03	; 3
     354:	01 97       	sbiw	r24, 0x01	; 1
     356:	f1 f7       	brne	.-4      	; 0x354 <_Z8lcd_initv+0x8c>
     358:	00 c0       	rjmp	.+0      	; 0x35a <_Z8lcd_initv+0x92>
     35a:	00 00       	nop
     35c:	80 81       	ld	r24, Z
     35e:	8f 7e       	andi	r24, 0xEF	; 239
     360:	80 83       	st	Z, r24
     362:	80 81       	ld	r24, Z
     364:	88 60       	ori	r24, 0x08	; 8
     366:	80 83       	st	Z, r24
     368:	73 98       	cbi	0x0e, 3	; 14
     36a:	a5 98       	cbi	0x14, 5	; 20
     36c:	80 81       	ld	r24, Z
     36e:	80 62       	ori	r24, 0x20	; 32
     370:	80 83       	st	Z, r24
     372:	80 81       	ld	r24, Z
     374:	8f 7d       	andi	r24, 0xDF	; 223
     376:	80 83       	st	Z, r24
     378:	88 e2       	ldi	r24, 0x28	; 40
     37a:	0f df       	rcall	.-482    	; 0x19a <_ZL9lcd_writeh>
     37c:	8e e0       	ldi	r24, 0x0E	; 14
     37e:	0d df       	rcall	.-486    	; 0x19a <_ZL9lcd_writeh>
     380:	69 df       	rcall	.-302    	; 0x254 <_Z9lcd_clearv>
     382:	86 e0       	ldi	r24, 0x06	; 6
     384:	0a cf       	rjmp	.-492    	; 0x19a <_ZL9lcd_writeh>

00000386 <_Z7lcd_numii>:
     386:	cf 93       	push	r28
     388:	df 93       	push	r29
     38a:	00 d0       	rcall	.+0      	; 0x38c <_Z7lcd_numii+0x6>
     38c:	00 d0       	rcall	.+0      	; 0x38e <_Z7lcd_numii+0x8>
     38e:	cd b7       	in	r28, 0x3d	; 61
     390:	de b7       	in	r29, 0x3e	; 62
     392:	ab 01       	movw	r20, r22
     394:	be 01       	movw	r22, r28
     396:	6f 5f       	subi	r22, 0xFF	; 255
     398:	7f 4f       	sbci	r23, 0xFF	; 255
     39a:	0e 94 7b 0d 	call	0x1af6	; 0x1af6 <itoa>
     39e:	ce 01       	movw	r24, r28
     3a0:	01 96       	adiw	r24, 0x01	; 1
     3a2:	66 df       	rcall	.-308    	; 0x270 <_Z8lcd_putsPKc>
     3a4:	26 96       	adiw	r28, 0x06	; 6
     3a6:	0f b6       	in	r0, 0x3f	; 63
     3a8:	f8 94       	cli
     3aa:	de bf       	out	0x3e, r29	; 62
     3ac:	0f be       	out	0x3f, r0	; 63
     3ae:	cd bf       	out	0x3d, r28	; 61
     3b0:	df 91       	pop	r29
     3b2:	cf 91       	pop	r28
     3b4:	08 95       	ret

000003b6 <_Z6PrintfhPcz>:
     3b6:	4f 92       	push	r4
     3b8:	5f 92       	push	r5
     3ba:	6f 92       	push	r6
     3bc:	7f 92       	push	r7
     3be:	af 92       	push	r10
     3c0:	bf 92       	push	r11
     3c2:	cf 92       	push	r12
     3c4:	df 92       	push	r13
     3c6:	ef 92       	push	r14
     3c8:	ff 92       	push	r15
     3ca:	0f 93       	push	r16
     3cc:	1f 93       	push	r17
     3ce:	cf 93       	push	r28
     3d0:	df 93       	push	r29
     3d2:	cd b7       	in	r28, 0x3d	; 61
     3d4:	de b7       	in	r29, 0x3e	; 62
     3d6:	8a 89       	ldd	r24, Y+18	; 0x12
     3d8:	eb 88       	ldd	r14, Y+19	; 0x13
     3da:	fc 88       	ldd	r15, Y+20	; 0x14
     3dc:	81 30       	cpi	r24, 0x01	; 1
     3de:	21 f4       	brne	.+8      	; 0x3e8 <_Z6PrintfhPcz+0x32>
     3e0:	60 e0       	ldi	r22, 0x00	; 0
     3e2:	80 e0       	ldi	r24, 0x00	; 0
     3e4:	5e df       	rcall	.-324    	; 0x2a2 <_Z10lcd_gotoxyhh>
     3e6:	11 c0       	rjmp	.+34     	; 0x40a <_Z6PrintfhPcz+0x54>
     3e8:	82 30       	cpi	r24, 0x02	; 2
     3ea:	21 f4       	brne	.+8      	; 0x3f4 <_Z6PrintfhPcz+0x3e>
     3ec:	61 e0       	ldi	r22, 0x01	; 1
     3ee:	80 e0       	ldi	r24, 0x00	; 0
     3f0:	58 df       	rcall	.-336    	; 0x2a2 <_Z10lcd_gotoxyhh>
     3f2:	0b c0       	rjmp	.+22     	; 0x40a <_Z6PrintfhPcz+0x54>
     3f4:	83 30       	cpi	r24, 0x03	; 3
     3f6:	21 f4       	brne	.+8      	; 0x400 <_Z6PrintfhPcz+0x4a>
     3f8:	62 e0       	ldi	r22, 0x02	; 2
     3fa:	80 e0       	ldi	r24, 0x00	; 0
     3fc:	52 df       	rcall	.-348    	; 0x2a2 <_Z10lcd_gotoxyhh>
     3fe:	05 c0       	rjmp	.+10     	; 0x40a <_Z6PrintfhPcz+0x54>
     400:	84 30       	cpi	r24, 0x04	; 4
     402:	19 f4       	brne	.+6      	; 0x40a <_Z6PrintfhPcz+0x54>
     404:	63 e0       	ldi	r22, 0x03	; 3
     406:	80 e0       	ldi	r24, 0x00	; 0
     408:	4c df       	rcall	.-360    	; 0x2a2 <_Z10lcd_gotoxyhh>
     40a:	6e 01       	movw	r12, r28
     40c:	85 e1       	ldi	r24, 0x15	; 21
     40e:	c8 0e       	add	r12, r24
     410:	d1 1c       	adc	r13, r1
     412:	f7 01       	movw	r30, r14
     414:	80 81       	ld	r24, Z
     416:	88 23       	and	r24, r24
     418:	09 f4       	brne	.+2      	; 0x41c <_Z6PrintfhPcz+0x66>
     41a:	b2 c0       	rjmp	.+356    	; 0x580 <_Z6PrintfhPcz+0x1ca>
     41c:	85 32       	cpi	r24, 0x25	; 37
     41e:	09 f0       	breq	.+2      	; 0x422 <_Z6PrintfhPcz+0x6c>
     420:	98 c0       	rjmp	.+304    	; 0x552 <_Z6PrintfhPcz+0x19c>
     422:	87 01       	movw	r16, r14
     424:	0f 5f       	subi	r16, 0xFF	; 255
     426:	1f 4f       	sbci	r17, 0xFF	; 255
     428:	f7 01       	movw	r30, r14
     42a:	81 81       	ldd	r24, Z+1	; 0x01
     42c:	86 36       	cpi	r24, 0x66	; 102
     42e:	09 f4       	brne	.+2      	; 0x432 <_Z6PrintfhPcz+0x7c>
     430:	49 c0       	rjmp	.+146    	; 0x4c4 <_Z6PrintfhPcz+0x10e>
     432:	30 f4       	brcc	.+12     	; 0x440 <_Z6PrintfhPcz+0x8a>
     434:	82 36       	cpi	r24, 0x62	; 98
     436:	61 f0       	breq	.+24     	; 0x450 <_Z6PrintfhPcz+0x9a>
     438:	84 36       	cpi	r24, 0x64	; 100
     43a:	09 f0       	breq	.+2      	; 0x43e <_Z6PrintfhPcz+0x88>
     43c:	86 c0       	rjmp	.+268    	; 0x54a <_Z6PrintfhPcz+0x194>
     43e:	20 c0       	rjmp	.+64     	; 0x480 <_Z6PrintfhPcz+0xca>
     440:	83 37       	cpi	r24, 0x73	; 115
     442:	51 f1       	breq	.+84     	; 0x498 <_Z6PrintfhPcz+0xe2>
     444:	88 37       	cpi	r24, 0x78	; 120
     446:	81 f0       	breq	.+32     	; 0x468 <_Z6PrintfhPcz+0xb2>
     448:	8f 36       	cpi	r24, 0x6F	; 111
     44a:	09 f0       	breq	.+2      	; 0x44e <_Z6PrintfhPcz+0x98>
     44c:	7e c0       	rjmp	.+252    	; 0x54a <_Z6PrintfhPcz+0x194>
     44e:	71 c0       	rjmp	.+226    	; 0x532 <_Z6PrintfhPcz+0x17c>
     450:	76 01       	movw	r14, r12
     452:	f2 e0       	ldi	r31, 0x02	; 2
     454:	ef 0e       	add	r14, r31
     456:	f1 1c       	adc	r15, r1
     458:	62 e0       	ldi	r22, 0x02	; 2
     45a:	70 e0       	ldi	r23, 0x00	; 0
     45c:	f6 01       	movw	r30, r12
     45e:	80 81       	ld	r24, Z
     460:	91 81       	ldd	r25, Z+1	; 0x01
     462:	91 df       	rcall	.-222    	; 0x386 <_Z7lcd_numii>
     464:	67 01       	movw	r12, r14
     466:	84 c0       	rjmp	.+264    	; 0x570 <_Z6PrintfhPcz+0x1ba>
     468:	76 01       	movw	r14, r12
     46a:	f2 e0       	ldi	r31, 0x02	; 2
     46c:	ef 0e       	add	r14, r31
     46e:	f1 1c       	adc	r15, r1
     470:	60 e1       	ldi	r22, 0x10	; 16
     472:	70 e0       	ldi	r23, 0x00	; 0
     474:	f6 01       	movw	r30, r12
     476:	80 81       	ld	r24, Z
     478:	91 81       	ldd	r25, Z+1	; 0x01
     47a:	85 df       	rcall	.-246    	; 0x386 <_Z7lcd_numii>
     47c:	67 01       	movw	r12, r14
     47e:	78 c0       	rjmp	.+240    	; 0x570 <_Z6PrintfhPcz+0x1ba>
     480:	76 01       	movw	r14, r12
     482:	f2 e0       	ldi	r31, 0x02	; 2
     484:	ef 0e       	add	r14, r31
     486:	f1 1c       	adc	r15, r1
     488:	6a e0       	ldi	r22, 0x0A	; 10
     48a:	70 e0       	ldi	r23, 0x00	; 0
     48c:	f6 01       	movw	r30, r12
     48e:	80 81       	ld	r24, Z
     490:	91 81       	ldd	r25, Z+1	; 0x01
     492:	79 df       	rcall	.-270    	; 0x386 <_Z7lcd_numii>
     494:	67 01       	movw	r12, r14
     496:	6c c0       	rjmp	.+216    	; 0x570 <_Z6PrintfhPcz+0x1ba>
     498:	f6 01       	movw	r30, r12
     49a:	82 e0       	ldi	r24, 0x02	; 2
     49c:	c8 0e       	add	r12, r24
     49e:	d1 1c       	adc	r13, r1
     4a0:	01 90       	ld	r0, Z+
     4a2:	f0 81       	ld	r31, Z
     4a4:	e0 2d       	mov	r30, r0
     4a6:	80 81       	ld	r24, Z
     4a8:	88 23       	and	r24, r24
     4aa:	09 f4       	brne	.+2      	; 0x4ae <_Z6PrintfhPcz+0xf8>
     4ac:	61 c0       	rjmp	.+194    	; 0x570 <_Z6PrintfhPcz+0x1ba>
     4ae:	7f 01       	movw	r14, r30
     4b0:	9f ef       	ldi	r25, 0xFF	; 255
     4b2:	e9 1a       	sub	r14, r25
     4b4:	f9 0a       	sbc	r15, r25
     4b6:	ef de       	rcall	.-546    	; 0x296 <_Z9lcd_putchc>
     4b8:	f7 01       	movw	r30, r14
     4ba:	81 91       	ld	r24, Z+
     4bc:	7f 01       	movw	r14, r30
     4be:	81 11       	cpse	r24, r1
     4c0:	fa cf       	rjmp	.-12     	; 0x4b6 <_Z6PrintfhPcz+0x100>
     4c2:	56 c0       	rjmp	.+172    	; 0x570 <_Z6PrintfhPcz+0x1ba>
     4c4:	56 01       	movw	r10, r12
     4c6:	f4 e0       	ldi	r31, 0x04	; 4
     4c8:	af 0e       	add	r10, r31
     4ca:	b1 1c       	adc	r11, r1
     4cc:	f6 01       	movw	r30, r12
     4ce:	40 80       	ld	r4, Z
     4d0:	51 80       	ldd	r5, Z+1	; 0x01
     4d2:	62 80       	ldd	r6, Z+2	; 0x02
     4d4:	73 80       	ldd	r7, Z+3	; 0x03
     4d6:	c3 01       	movw	r24, r6
     4d8:	b2 01       	movw	r22, r4
     4da:	0e 94 41 0c 	call	0x1882	; 0x1882 <__fixsfsi>
     4de:	6b 01       	movw	r12, r22
     4e0:	7c 01       	movw	r14, r24
     4e2:	88 27       	eor	r24, r24
     4e4:	77 fd       	sbrc	r23, 7
     4e6:	80 95       	com	r24
     4e8:	98 2f       	mov	r25, r24
     4ea:	0e 94 74 0c 	call	0x18e8	; 0x18e8 <__floatsisf>
     4ee:	9b 01       	movw	r18, r22
     4f0:	ac 01       	movw	r20, r24
     4f2:	c3 01       	movw	r24, r6
     4f4:	b2 01       	movw	r22, r4
     4f6:	0e 94 74 0b 	call	0x16e8	; 0x16e8 <__subsf3>
     4fa:	20 e0       	ldi	r18, 0x00	; 0
     4fc:	30 e0       	ldi	r19, 0x00	; 0
     4fe:	48 ec       	ldi	r20, 0xC8	; 200
     500:	52 e4       	ldi	r21, 0x42	; 66
     502:	0e 94 00 0d 	call	0x1a00	; 0x1a00 <__mulsf3>
     506:	0e 94 41 0c 	call	0x1882	; 0x1882 <__fixsfsi>
     50a:	66 2e       	mov	r6, r22
     50c:	77 2e       	mov	r7, r23
     50e:	6a e0       	ldi	r22, 0x0A	; 10
     510:	70 e0       	ldi	r23, 0x00	; 0
     512:	c6 01       	movw	r24, r12
     514:	38 df       	rcall	.-400    	; 0x386 <_Z7lcd_numii>
     516:	8e e2       	ldi	r24, 0x2E	; 46
     518:	be de       	rcall	.-644    	; 0x296 <_Z9lcd_putchc>
     51a:	86 2d       	mov	r24, r6
     51c:	97 2d       	mov	r25, r7
     51e:	99 23       	and	r25, r25
     520:	1c f4       	brge	.+6      	; 0x528 <_Z6PrintfhPcz+0x172>
     522:	91 95       	neg	r25
     524:	81 95       	neg	r24
     526:	91 09       	sbc	r25, r1
     528:	6a e0       	ldi	r22, 0x0A	; 10
     52a:	70 e0       	ldi	r23, 0x00	; 0
     52c:	2c df       	rcall	.-424    	; 0x386 <_Z7lcd_numii>
     52e:	65 01       	movw	r12, r10
     530:	1f c0       	rjmp	.+62     	; 0x570 <_Z6PrintfhPcz+0x1ba>
     532:	76 01       	movw	r14, r12
     534:	f2 e0       	ldi	r31, 0x02	; 2
     536:	ef 0e       	add	r14, r31
     538:	f1 1c       	adc	r15, r1
     53a:	68 e0       	ldi	r22, 0x08	; 8
     53c:	70 e0       	ldi	r23, 0x00	; 0
     53e:	f6 01       	movw	r30, r12
     540:	80 81       	ld	r24, Z
     542:	91 81       	ldd	r25, Z+1	; 0x01
     544:	20 df       	rcall	.-448    	; 0x386 <_Z7lcd_numii>
     546:	67 01       	movw	r12, r14
     548:	13 c0       	rjmp	.+38     	; 0x570 <_Z6PrintfhPcz+0x1ba>
     54a:	85 e2       	ldi	r24, 0x25	; 37
     54c:	a4 de       	rcall	.-696    	; 0x296 <_Z9lcd_putchc>
     54e:	87 01       	movw	r16, r14
     550:	0f c0       	rjmp	.+30     	; 0x570 <_Z6PrintfhPcz+0x1ba>
     552:	89 30       	cpi	r24, 0x09	; 9
     554:	21 f4       	brne	.+8      	; 0x55e <_Z6PrintfhPcz+0x1a8>
     556:	80 e2       	ldi	r24, 0x20	; 32
     558:	9e de       	rcall	.-708    	; 0x296 <_Z9lcd_putchc>
     55a:	87 01       	movw	r16, r14
     55c:	09 c0       	rjmp	.+18     	; 0x570 <_Z6PrintfhPcz+0x1ba>
     55e:	8a 30       	cpi	r24, 0x0A	; 10
     560:	29 f4       	brne	.+10     	; 0x56c <_Z6PrintfhPcz+0x1b6>
     562:	61 e0       	ldi	r22, 0x01	; 1
     564:	80 e0       	ldi	r24, 0x00	; 0
     566:	9d de       	rcall	.-710    	; 0x2a2 <_Z10lcd_gotoxyhh>
     568:	87 01       	movw	r16, r14
     56a:	02 c0       	rjmp	.+4      	; 0x570 <_Z6PrintfhPcz+0x1ba>
     56c:	94 de       	rcall	.-728    	; 0x296 <_Z9lcd_putchc>
     56e:	87 01       	movw	r16, r14
     570:	78 01       	movw	r14, r16
     572:	ff ef       	ldi	r31, 0xFF	; 255
     574:	ef 1a       	sub	r14, r31
     576:	ff 0a       	sbc	r15, r31
     578:	f8 01       	movw	r30, r16
     57a:	81 81       	ldd	r24, Z+1	; 0x01
     57c:	81 11       	cpse	r24, r1
     57e:	4e cf       	rjmp	.-356    	; 0x41c <_Z6PrintfhPcz+0x66>
     580:	df 91       	pop	r29
     582:	cf 91       	pop	r28
     584:	1f 91       	pop	r17
     586:	0f 91       	pop	r16
     588:	ff 90       	pop	r15
     58a:	ef 90       	pop	r14
     58c:	df 90       	pop	r13
     58e:	cf 90       	pop	r12
     590:	bf 90       	pop	r11
     592:	af 90       	pop	r10
     594:	7f 90       	pop	r7
     596:	6f 90       	pop	r6
     598:	5f 90       	pop	r5
     59a:	4f 90       	pop	r4
     59c:	08 95       	ret

0000059e <_Z11keypad_initv>:
     59e:	87 b1       	in	r24, 0x07	; 7
     5a0:	82 68       	ori	r24, 0x82	; 130
     5a2:	87 b9       	out	0x07, r24	; 7
     5a4:	87 b1       	in	r24, 0x07	; 7
     5a6:	88 62       	ori	r24, 0x28	; 40
     5a8:	87 b9       	out	0x07, r24	; 7
     5aa:	81 b1       	in	r24, 0x01	; 1
     5ac:	8a 7a       	andi	r24, 0xAA	; 170
     5ae:	81 b9       	out	0x01, r24	; 1
     5b0:	88 b1       	in	r24, 0x08	; 8
     5b2:	8a 6a       	ori	r24, 0xAA	; 170
     5b4:	88 b9       	out	0x08, r24	; 8
     5b6:	82 b1       	in	r24, 0x02	; 2
     5b8:	85 65       	ori	r24, 0x55	; 85
     5ba:	82 b9       	out	0x02, r24	; 2
     5bc:	08 95       	ret

000005be <_Z12keypad_checkv>:
     5be:	41 98       	cbi	0x08, 1	; 8
     5c0:	43 9a       	sbi	0x08, 3	; 8
     5c2:	45 9a       	sbi	0x08, 5	; 8
     5c4:	47 9a       	sbi	0x08, 7	; 8
     5c6:	8f e5       	ldi	r24, 0x5F	; 95
     5c8:	9a ee       	ldi	r25, 0xEA	; 234
     5ca:	01 97       	sbiw	r24, 0x01	; 1
     5cc:	f1 f7       	brne	.-4      	; 0x5ca <_Z12keypad_checkv+0xc>
     5ce:	00 c0       	rjmp	.+0      	; 0x5d0 <_Z12keypad_checkv+0x12>
     5d0:	00 00       	nop
     5d2:	06 99       	sbic	0x00, 6	; 0
     5d4:	61 c0       	rjmp	.+194    	; 0x698 <_Z12keypad_checkv+0xda>
     5d6:	31 9b       	sbis	0x06, 1	; 6
     5d8:	30 c0       	rjmp	.+96     	; 0x63a <_Z12keypad_checkv+0x7c>
     5da:	5e c0       	rjmp	.+188    	; 0x698 <_Z12keypad_checkv+0xda>
     5dc:	31 9b       	sbis	0x06, 1	; 6
     5de:	30 c0       	rjmp	.+96     	; 0x640 <_Z12keypad_checkv+0x82>
     5e0:	5d c0       	rjmp	.+186    	; 0x69c <_Z12keypad_checkv+0xde>
     5e2:	31 9b       	sbis	0x06, 1	; 6
     5e4:	30 c0       	rjmp	.+96     	; 0x646 <_Z12keypad_checkv+0x88>
     5e6:	5c c0       	rjmp	.+184    	; 0x6a0 <_Z12keypad_checkv+0xe2>
     5e8:	31 9b       	sbis	0x06, 1	; 6
     5ea:	30 c0       	rjmp	.+96     	; 0x64c <_Z12keypad_checkv+0x8e>
     5ec:	5b c0       	rjmp	.+182    	; 0x6a4 <_Z12keypad_checkv+0xe6>
     5ee:	33 9b       	sbis	0x06, 3	; 6
     5f0:	30 c0       	rjmp	.+96     	; 0x652 <_Z12keypad_checkv+0x94>
     5f2:	68 c0       	rjmp	.+208    	; 0x6c4 <_Z12keypad_checkv+0x106>
     5f4:	33 9b       	sbis	0x06, 3	; 6
     5f6:	30 c0       	rjmp	.+96     	; 0x658 <_Z12keypad_checkv+0x9a>
     5f8:	67 c0       	rjmp	.+206    	; 0x6c8 <_Z12keypad_checkv+0x10a>
     5fa:	33 9b       	sbis	0x06, 3	; 6
     5fc:	30 c0       	rjmp	.+96     	; 0x65e <_Z12keypad_checkv+0xa0>
     5fe:	66 c0       	rjmp	.+204    	; 0x6cc <_Z12keypad_checkv+0x10e>
     600:	33 9b       	sbis	0x06, 3	; 6
     602:	30 c0       	rjmp	.+96     	; 0x664 <_Z12keypad_checkv+0xa6>
     604:	65 c0       	rjmp	.+202    	; 0x6d0 <_Z12keypad_checkv+0x112>
     606:	35 9b       	sbis	0x06, 5	; 6
     608:	30 c0       	rjmp	.+96     	; 0x66a <_Z12keypad_checkv+0xac>
     60a:	72 c0       	rjmp	.+228    	; 0x6f0 <_Z12keypad_checkv+0x132>
     60c:	35 9b       	sbis	0x06, 5	; 6
     60e:	30 c0       	rjmp	.+96     	; 0x670 <_Z12keypad_checkv+0xb2>
     610:	71 c0       	rjmp	.+226    	; 0x6f4 <_Z12keypad_checkv+0x136>
     612:	35 9b       	sbis	0x06, 5	; 6
     614:	30 c0       	rjmp	.+96     	; 0x676 <_Z12keypad_checkv+0xb8>
     616:	70 c0       	rjmp	.+224    	; 0x6f8 <_Z12keypad_checkv+0x13a>
     618:	35 9b       	sbis	0x06, 5	; 6
     61a:	30 c0       	rjmp	.+96     	; 0x67c <_Z12keypad_checkv+0xbe>
     61c:	6f c0       	rjmp	.+222    	; 0x6fc <_Z12keypad_checkv+0x13e>
     61e:	37 9b       	sbis	0x06, 7	; 6
     620:	30 c0       	rjmp	.+96     	; 0x682 <_Z12keypad_checkv+0xc4>
     622:	7c c0       	rjmp	.+248    	; 0x71c <_Z12keypad_checkv+0x15e>
     624:	37 9b       	sbis	0x06, 7	; 6
     626:	30 c0       	rjmp	.+96     	; 0x688 <_Z12keypad_checkv+0xca>
     628:	7b c0       	rjmp	.+246    	; 0x720 <_Z12keypad_checkv+0x162>
     62a:	37 9b       	sbis	0x06, 7	; 6
     62c:	30 c0       	rjmp	.+96     	; 0x68e <_Z12keypad_checkv+0xd0>
     62e:	7a c0       	rjmp	.+244    	; 0x724 <_Z12keypad_checkv+0x166>
     630:	37 99       	sbic	0x06, 7	; 6
     632:	7a c0       	rjmp	.+244    	; 0x728 <_Z12keypad_checkv+0x16a>
     634:	20 e1       	ldi	r18, 0x10	; 16
     636:	30 e0       	ldi	r19, 0x00	; 0
     638:	2c c0       	rjmp	.+88     	; 0x692 <_Z12keypad_checkv+0xd4>
     63a:	21 e0       	ldi	r18, 0x01	; 1
     63c:	30 e0       	ldi	r19, 0x00	; 0
     63e:	29 c0       	rjmp	.+82     	; 0x692 <_Z12keypad_checkv+0xd4>
     640:	24 e0       	ldi	r18, 0x04	; 4
     642:	30 e0       	ldi	r19, 0x00	; 0
     644:	26 c0       	rjmp	.+76     	; 0x692 <_Z12keypad_checkv+0xd4>
     646:	27 e0       	ldi	r18, 0x07	; 7
     648:	30 e0       	ldi	r19, 0x00	; 0
     64a:	23 c0       	rjmp	.+70     	; 0x692 <_Z12keypad_checkv+0xd4>
     64c:	2c e0       	ldi	r18, 0x0C	; 12
     64e:	30 e0       	ldi	r19, 0x00	; 0
     650:	20 c0       	rjmp	.+64     	; 0x692 <_Z12keypad_checkv+0xd4>
     652:	22 e0       	ldi	r18, 0x02	; 2
     654:	30 e0       	ldi	r19, 0x00	; 0
     656:	1d c0       	rjmp	.+58     	; 0x692 <_Z12keypad_checkv+0xd4>
     658:	25 e0       	ldi	r18, 0x05	; 5
     65a:	30 e0       	ldi	r19, 0x00	; 0
     65c:	1a c0       	rjmp	.+52     	; 0x692 <_Z12keypad_checkv+0xd4>
     65e:	28 e0       	ldi	r18, 0x08	; 8
     660:	30 e0       	ldi	r19, 0x00	; 0
     662:	17 c0       	rjmp	.+46     	; 0x692 <_Z12keypad_checkv+0xd4>
     664:	20 e0       	ldi	r18, 0x00	; 0
     666:	30 e0       	ldi	r19, 0x00	; 0
     668:	14 c0       	rjmp	.+40     	; 0x692 <_Z12keypad_checkv+0xd4>
     66a:	23 e0       	ldi	r18, 0x03	; 3
     66c:	30 e0       	ldi	r19, 0x00	; 0
     66e:	11 c0       	rjmp	.+34     	; 0x692 <_Z12keypad_checkv+0xd4>
     670:	26 e0       	ldi	r18, 0x06	; 6
     672:	30 e0       	ldi	r19, 0x00	; 0
     674:	0e c0       	rjmp	.+28     	; 0x692 <_Z12keypad_checkv+0xd4>
     676:	29 e0       	ldi	r18, 0x09	; 9
     678:	30 e0       	ldi	r19, 0x00	; 0
     67a:	0b c0       	rjmp	.+22     	; 0x692 <_Z12keypad_checkv+0xd4>
     67c:	2b e0       	ldi	r18, 0x0B	; 11
     67e:	30 e0       	ldi	r19, 0x00	; 0
     680:	08 c0       	rjmp	.+16     	; 0x692 <_Z12keypad_checkv+0xd4>
     682:	2d e0       	ldi	r18, 0x0D	; 13
     684:	30 e0       	ldi	r19, 0x00	; 0
     686:	05 c0       	rjmp	.+10     	; 0x692 <_Z12keypad_checkv+0xd4>
     688:	2e e0       	ldi	r18, 0x0E	; 14
     68a:	30 e0       	ldi	r19, 0x00	; 0
     68c:	02 c0       	rjmp	.+4      	; 0x692 <_Z12keypad_checkv+0xd4>
     68e:	2f e0       	ldi	r18, 0x0F	; 15
     690:	30 e0       	ldi	r19, 0x00	; 0
     692:	82 2f       	mov	r24, r18
     694:	93 2f       	mov	r25, r19
     696:	08 95       	ret
     698:	04 9b       	sbis	0x00, 4	; 0
     69a:	a0 cf       	rjmp	.-192    	; 0x5dc <_Z12keypad_checkv+0x1e>
     69c:	02 9b       	sbis	0x00, 2	; 0
     69e:	a1 cf       	rjmp	.-190    	; 0x5e2 <_Z12keypad_checkv+0x24>
     6a0:	00 9b       	sbis	0x00, 0	; 0
     6a2:	a2 cf       	rjmp	.-188    	; 0x5e8 <_Z12keypad_checkv+0x2a>
     6a4:	41 9a       	sbi	0x08, 1	; 8
     6a6:	8f e1       	ldi	r24, 0x1F	; 31
     6a8:	9e e4       	ldi	r25, 0x4E	; 78
     6aa:	01 97       	sbiw	r24, 0x01	; 1
     6ac:	f1 f7       	brne	.-4      	; 0x6aa <_Z12keypad_checkv+0xec>
     6ae:	00 c0       	rjmp	.+0      	; 0x6b0 <_Z12keypad_checkv+0xf2>
     6b0:	00 00       	nop
     6b2:	43 98       	cbi	0x08, 3	; 8
     6b4:	8f e5       	ldi	r24, 0x5F	; 95
     6b6:	9a ee       	ldi	r25, 0xEA	; 234
     6b8:	01 97       	sbiw	r24, 0x01	; 1
     6ba:	f1 f7       	brne	.-4      	; 0x6b8 <_Z12keypad_checkv+0xfa>
     6bc:	00 c0       	rjmp	.+0      	; 0x6be <_Z12keypad_checkv+0x100>
     6be:	00 00       	nop
     6c0:	06 9b       	sbis	0x00, 6	; 0
     6c2:	95 cf       	rjmp	.-214    	; 0x5ee <_Z12keypad_checkv+0x30>
     6c4:	04 9b       	sbis	0x00, 4	; 0
     6c6:	96 cf       	rjmp	.-212    	; 0x5f4 <_Z12keypad_checkv+0x36>
     6c8:	02 9b       	sbis	0x00, 2	; 0
     6ca:	97 cf       	rjmp	.-210    	; 0x5fa <_Z12keypad_checkv+0x3c>
     6cc:	00 9b       	sbis	0x00, 0	; 0
     6ce:	98 cf       	rjmp	.-208    	; 0x600 <_Z12keypad_checkv+0x42>
     6d0:	43 9a       	sbi	0x08, 3	; 8
     6d2:	8f e1       	ldi	r24, 0x1F	; 31
     6d4:	9e e4       	ldi	r25, 0x4E	; 78
     6d6:	01 97       	sbiw	r24, 0x01	; 1
     6d8:	f1 f7       	brne	.-4      	; 0x6d6 <_Z12keypad_checkv+0x118>
     6da:	00 c0       	rjmp	.+0      	; 0x6dc <_Z12keypad_checkv+0x11e>
     6dc:	00 00       	nop
     6de:	45 98       	cbi	0x08, 5	; 8
     6e0:	8f e5       	ldi	r24, 0x5F	; 95
     6e2:	9a ee       	ldi	r25, 0xEA	; 234
     6e4:	01 97       	sbiw	r24, 0x01	; 1
     6e6:	f1 f7       	brne	.-4      	; 0x6e4 <_Z12keypad_checkv+0x126>
     6e8:	00 c0       	rjmp	.+0      	; 0x6ea <_Z12keypad_checkv+0x12c>
     6ea:	00 00       	nop
     6ec:	06 9b       	sbis	0x00, 6	; 0
     6ee:	8b cf       	rjmp	.-234    	; 0x606 <_Z12keypad_checkv+0x48>
     6f0:	04 9b       	sbis	0x00, 4	; 0
     6f2:	8c cf       	rjmp	.-232    	; 0x60c <_Z12keypad_checkv+0x4e>
     6f4:	02 9b       	sbis	0x00, 2	; 0
     6f6:	8d cf       	rjmp	.-230    	; 0x612 <_Z12keypad_checkv+0x54>
     6f8:	00 9b       	sbis	0x00, 0	; 0
     6fa:	8e cf       	rjmp	.-228    	; 0x618 <_Z12keypad_checkv+0x5a>
     6fc:	45 9a       	sbi	0x08, 5	; 8
     6fe:	8f e1       	ldi	r24, 0x1F	; 31
     700:	9e e4       	ldi	r25, 0x4E	; 78
     702:	01 97       	sbiw	r24, 0x01	; 1
     704:	f1 f7       	brne	.-4      	; 0x702 <_Z12keypad_checkv+0x144>
     706:	00 c0       	rjmp	.+0      	; 0x708 <_Z12keypad_checkv+0x14a>
     708:	00 00       	nop
     70a:	47 98       	cbi	0x08, 7	; 8
     70c:	8f e5       	ldi	r24, 0x5F	; 95
     70e:	9a ee       	ldi	r25, 0xEA	; 234
     710:	01 97       	sbiw	r24, 0x01	; 1
     712:	f1 f7       	brne	.-4      	; 0x710 <_Z12keypad_checkv+0x152>
     714:	00 c0       	rjmp	.+0      	; 0x716 <_Z12keypad_checkv+0x158>
     716:	00 00       	nop
     718:	06 9b       	sbis	0x00, 6	; 0
     71a:	81 cf       	rjmp	.-254    	; 0x61e <_Z12keypad_checkv+0x60>
     71c:	04 9b       	sbis	0x00, 4	; 0
     71e:	82 cf       	rjmp	.-252    	; 0x624 <_Z12keypad_checkv+0x66>
     720:	02 9b       	sbis	0x00, 2	; 0
     722:	83 cf       	rjmp	.-250    	; 0x62a <_Z12keypad_checkv+0x6c>
     724:	00 9b       	sbis	0x00, 0	; 0
     726:	84 cf       	rjmp	.-248    	; 0x630 <_Z12keypad_checkv+0x72>
     728:	47 9a       	sbi	0x08, 7	; 8
     72a:	8f e1       	ldi	r24, 0x1F	; 31
     72c:	9e e4       	ldi	r25, 0x4E	; 78
     72e:	01 97       	sbiw	r24, 0x01	; 1
     730:	f1 f7       	brne	.-4      	; 0x72e <_Z12keypad_checkv+0x170>
     732:	00 c0       	rjmp	.+0      	; 0x734 <_Z12keypad_checkv+0x176>
     734:	00 00       	nop
     736:	8a e0       	ldi	r24, 0x0A	; 10
     738:	90 e0       	ldi	r25, 0x00	; 0
     73a:	90 93 09 02 	sts	0x0209, r25
     73e:	80 93 08 02 	sts	0x0208, r24
     742:	2a e0       	ldi	r18, 0x0A	; 10
     744:	30 e0       	ldi	r19, 0x00	; 0
     746:	a5 cf       	rjmp	.-182    	; 0x692 <_Z12keypad_checkv+0xd4>

00000748 <_Z10get_statusv>:
     748:	41 98       	cbi	0x08, 1	; 8
     74a:	43 98       	cbi	0x08, 3	; 8
     74c:	45 98       	cbi	0x08, 5	; 8
     74e:	47 98       	cbi	0x08, 7	; 8
     750:	06 9b       	sbis	0x00, 6	; 0
     752:	0b c0       	rjmp	.+22     	; 0x76a <_Z10get_statusv+0x22>
     754:	04 9b       	sbis	0x00, 4	; 0
     756:	0c c0       	rjmp	.+24     	; 0x770 <_Z10get_statusv+0x28>
     758:	02 9b       	sbis	0x00, 2	; 0
     75a:	0d c0       	rjmp	.+26     	; 0x776 <_Z10get_statusv+0x2e>
     75c:	90 b1       	in	r25, 0x00	; 0
     75e:	81 e0       	ldi	r24, 0x01	; 1
     760:	89 27       	eor	r24, r25
     762:	28 2f       	mov	r18, r24
     764:	21 70       	andi	r18, 0x01	; 1
     766:	30 e0       	ldi	r19, 0x00	; 0
     768:	08 c0       	rjmp	.+16     	; 0x77a <_Z10get_statusv+0x32>
     76a:	21 e0       	ldi	r18, 0x01	; 1
     76c:	30 e0       	ldi	r19, 0x00	; 0
     76e:	05 c0       	rjmp	.+10     	; 0x77a <_Z10get_statusv+0x32>
     770:	21 e0       	ldi	r18, 0x01	; 1
     772:	30 e0       	ldi	r19, 0x00	; 0
     774:	02 c0       	rjmp	.+4      	; 0x77a <_Z10get_statusv+0x32>
     776:	21 e0       	ldi	r18, 0x01	; 1
     778:	30 e0       	ldi	r19, 0x00	; 0
     77a:	82 2f       	mov	r24, r18
     77c:	93 2f       	mov	r25, r19
     77e:	08 95       	ret

00000780 <_Z7get_keyv>:
     780:	e3 df       	rcall	.-58     	; 0x748 <_Z10get_statusv>
     782:	01 97       	sbiw	r24, 0x01	; 1
     784:	51 f4       	brne	.+20     	; 0x79a <_Z7get_keyv+0x1a>
     786:	20 91 08 02 	lds	r18, 0x0208
     78a:	30 91 09 02 	lds	r19, 0x0209
     78e:	2a 30       	cpi	r18, 0x0A	; 10
     790:	31 05       	cpc	r19, r1
     792:	19 f0       	breq	.+6      	; 0x79a <_Z7get_keyv+0x1a>
     794:	82 2f       	mov	r24, r18
     796:	93 2f       	mov	r25, r19
     798:	08 95       	ret
     79a:	11 df       	rcall	.-478    	; 0x5be <_Z12keypad_checkv>
     79c:	9c 01       	movw	r18, r24
     79e:	90 93 09 02 	sts	0x0209, r25
     7a2:	80 93 08 02 	sts	0x0208, r24
     7a6:	f6 cf       	rjmp	.-20     	; 0x794 <_Z7get_keyv+0x14>

000007a8 <_Z6setADCv>:
     7a8:	ea e7       	ldi	r30, 0x7A	; 122
     7aa:	f0 e0       	ldi	r31, 0x00	; 0
     7ac:	80 81       	ld	r24, Z
     7ae:	80 68       	ori	r24, 0x80	; 128
     7b0:	80 83       	st	Z, r24
     7b2:	ac e7       	ldi	r26, 0x7C	; 124
     7b4:	b0 e0       	ldi	r27, 0x00	; 0
     7b6:	8c 91       	ld	r24, X
     7b8:	80 64       	ori	r24, 0x40	; 64
     7ba:	8c 93       	st	X, r24
     7bc:	8c 91       	ld	r24, X
     7be:	80 7e       	andi	r24, 0xE0	; 224
     7c0:	8c 93       	st	X, r24
     7c2:	80 81       	ld	r24, Z
     7c4:	86 60       	ori	r24, 0x06	; 6
     7c6:	80 83       	st	Z, r24
     7c8:	80 81       	ld	r24, Z
     7ca:	81 60       	ori	r24, 0x01	; 1
     7cc:	80 83       	st	Z, r24
     7ce:	80 81       	ld	r24, Z
     7d0:	80 64       	ori	r24, 0x40	; 64
     7d2:	80 83       	st	Z, r24
     7d4:	80 81       	ld	r24, Z
     7d6:	86 fd       	sbrc	r24, 6
     7d8:	fd cf       	rjmp	.-6      	; 0x7d4 <_Z6setADCv+0x2c>
     7da:	ea e7       	ldi	r30, 0x7A	; 122
     7dc:	f0 e0       	ldi	r31, 0x00	; 0
     7de:	80 81       	ld	r24, Z
     7e0:	8f 77       	andi	r24, 0x7F	; 127
     7e2:	80 83       	st	Z, r24
     7e4:	08 95       	ret

000007e6 <_Z8adc_readh>:
     7e6:	ec e7       	ldi	r30, 0x7C	; 124
     7e8:	f0 e0       	ldi	r31, 0x00	; 0
     7ea:	90 81       	ld	r25, Z
     7ec:	87 70       	andi	r24, 0x07	; 7
     7ee:	98 7f       	andi	r25, 0xF8	; 248
     7f0:	98 2b       	or	r25, r24
     7f2:	90 83       	st	Z, r25
     7f4:	ea e7       	ldi	r30, 0x7A	; 122
     7f6:	f0 e0       	ldi	r31, 0x00	; 0
     7f8:	80 81       	ld	r24, Z
     7fa:	80 6c       	ori	r24, 0xC0	; 192
     7fc:	80 83       	st	Z, r24
     7fe:	80 81       	ld	r24, Z
     800:	86 fd       	sbrc	r24, 6
     802:	fd cf       	rjmp	.-6      	; 0x7fe <_Z8adc_readh+0x18>
     804:	20 91 78 00 	lds	r18, 0x0078
     808:	30 91 79 00 	lds	r19, 0x0079
     80c:	82 2f       	mov	r24, r18
     80e:	93 2f       	mov	r25, r19
     810:	08 95       	ret

00000812 <_Z7displayv>:
	//DDRF|=(1<<PF7);
	//PORTF |= (1<<PF7);
}


void display(){
     812:	1f 93       	push	r17
     814:	cf 93       	push	r28
     816:	df 93       	push	r29
	lcd_gotoxy(3,0);
     818:	60 e0       	ldi	r22, 0x00	; 0
     81a:	83 e0       	ldi	r24, 0x03	; 3
     81c:	42 dd       	rcall	.-1404   	; 0x2a2 <_Z10lcd_gotoxyhh>
	Printf(5,"%fC",air_temp);
     81e:	80 91 b4 02 	lds	r24, 0x02B4
     822:	8f 93       	push	r24
     824:	80 91 b3 02 	lds	r24, 0x02B3
     828:	8f 93       	push	r24
     82a:	80 91 b2 02 	lds	r24, 0x02B2
     82e:	8f 93       	push	r24
     830:	80 91 b1 02 	lds	r24, 0x02B1
     834:	8f 93       	push	r24
     836:	c6 e9       	ldi	r28, 0x96	; 150
     838:	d2 e0       	ldi	r29, 0x02	; 2
     83a:	df 93       	push	r29
     83c:	cf 93       	push	r28
     83e:	15 e0       	ldi	r17, 0x05	; 5
     840:	1f 93       	push	r17
     842:	b9 dd       	rcall	.-1166   	; 0x3b6 <_Z6PrintfhPcz>
	lcd_gotoxy(13,0);
     844:	60 e0       	ldi	r22, 0x00	; 0
     846:	8d e0       	ldi	r24, 0x0D	; 13
     848:	2c dd       	rcall	.-1448   	; 0x2a2 <_Z10lcd_gotoxyhh>
	Printf(5,"%fC",skin_temp);
     84a:	80 91 b0 02 	lds	r24, 0x02B0
     84e:	8f 93       	push	r24
     850:	80 91 af 02 	lds	r24, 0x02AF
     854:	8f 93       	push	r24
     856:	80 91 ae 02 	lds	r24, 0x02AE
     85a:	8f 93       	push	r24
     85c:	80 91 ad 02 	lds	r24, 0x02AD
     860:	8f 93       	push	r24
     862:	df 93       	push	r29
     864:	cf 93       	push	r28
     866:	1f 93       	push	r17
     868:	a6 dd       	rcall	.-1204   	; 0x3b6 <_Z6PrintfhPcz>
	lcd_gotoxy(3,1);
     86a:	61 e0       	ldi	r22, 0x01	; 1
     86c:	83 e0       	ldi	r24, 0x03	; 3
     86e:	19 dd       	rcall	.-1486   	; 0x2a2 <_Z10lcd_gotoxyhh>
	Printf(5,"%d%",humidity);
     870:	80 91 b6 02 	lds	r24, 0x02B6
     874:	8f 93       	push	r24
     876:	80 91 b5 02 	lds	r24, 0x02B5
     87a:	8f 93       	push	r24
     87c:	8d e9       	ldi	r24, 0x9D	; 157
     87e:	92 e0       	ldi	r25, 0x02	; 2
     880:	9f 93       	push	r25
     882:	8f 93       	push	r24
     884:	1f 93       	push	r17
     886:	97 dd       	rcall	.-1234   	; 0x3b6 <_Z6PrintfhPcz>
	if(hour == 0 && minute == 0 && second == 0) {
     888:	80 91 d5 02 	lds	r24, 0x02D5
     88c:	90 91 d6 02 	lds	r25, 0x02D6
     890:	2d b7       	in	r18, 0x3d	; 61
     892:	3e b7       	in	r19, 0x3e	; 62
     894:	2d 5e       	subi	r18, 0xED	; 237
     896:	3f 4f       	sbci	r19, 0xFF	; 255
     898:	0f b6       	in	r0, 0x3f	; 63
     89a:	f8 94       	cli
     89c:	3e bf       	out	0x3e, r19	; 62
     89e:	0f be       	out	0x3f, r0	; 63
     8a0:	2d bf       	out	0x3d, r18	; 61
     8a2:	89 2b       	or	r24, r25
     8a4:	09 f0       	breq	.+2      	; 0x8a8 <_Z7displayv+0x96>
     8a6:	e0 c0       	rjmp	.+448    	; 0xa68 <_Z7displayv+0x256>
     8a8:	80 91 04 02 	lds	r24, 0x0204
     8ac:	90 91 05 02 	lds	r25, 0x0205
     8b0:	89 2b       	or	r24, r25
     8b2:	09 f0       	breq	.+2      	; 0x8b6 <_Z7displayv+0xa4>
     8b4:	d9 c0       	rjmp	.+434    	; 0xa68 <_Z7displayv+0x256>
     8b6:	80 91 06 02 	lds	r24, 0x0206
     8ba:	90 91 07 02 	lds	r25, 0x0207
     8be:	89 2b       	or	r24, r25
     8c0:	09 f4       	brne	.+2      	; 0x8c4 <_Z7displayv+0xb2>
     8c2:	c7 c0       	rjmp	.+398    	; 0xa52 <_Z7displayv+0x240>
     8c4:	d1 c0       	rjmp	.+418    	; 0xa68 <_Z7displayv+0x256>
		Printf(3,"00:00:00");
	} else if(hour < 10 && minute < 10 && second < 10) {
     8c6:	80 91 04 02 	lds	r24, 0x0204
     8ca:	90 91 05 02 	lds	r25, 0x0205
     8ce:	0a 97       	sbiw	r24, 0x0a	; 10
     8d0:	0c f0       	brlt	.+2      	; 0x8d4 <_Z7displayv+0xc2>
     8d2:	d1 c0       	rjmp	.+418    	; 0xa76 <_Z7displayv+0x264>
     8d4:	80 91 06 02 	lds	r24, 0x0206
     8d8:	90 91 07 02 	lds	r25, 0x0207
     8dc:	0a 97       	sbiw	r24, 0x0a	; 10
     8de:	0c f4       	brge	.+2      	; 0x8e2 <_Z7displayv+0xd0>
     8e0:	d2 c0       	rjmp	.+420    	; 0xa86 <_Z7displayv+0x274>
     8e2:	c9 c0       	rjmp	.+402    	; 0xa76 <_Z7displayv+0x264>
		Printf(3,"0%d:0%d:0%d",hour, minute, second);
	} else if(hour < 10 && minute < 10) {
     8e4:	80 91 04 02 	lds	r24, 0x0204
     8e8:	90 91 05 02 	lds	r25, 0x0205
     8ec:	0a 97       	sbiw	r24, 0x0a	; 10
     8ee:	0c f4       	brge	.+2      	; 0x8f2 <_Z7displayv+0xe0>
     8f0:	ec c0       	rjmp	.+472    	; 0xaca <_Z7displayv+0x2b8>
     8f2:	0e c1       	rjmp	.+540    	; 0xb10 <_Z7displayv+0x2fe>
		Printf(3,"0%d:0%d:%d",hour, minute, second);
	} else if(hour < 10 && second < 10) {
     8f4:	80 91 06 02 	lds	r24, 0x0206
     8f8:	90 91 07 02 	lds	r25, 0x0207
     8fc:	0a 97       	sbiw	r24, 0x0a	; 10
     8fe:	0c f4       	brge	.+2      	; 0x902 <_Z7displayv+0xf0>
     900:	0f c1       	rjmp	.+542    	; 0xb20 <_Z7displayv+0x30e>
     902:	30 c1       	rjmp	.+608    	; 0xb64 <_Z7displayv+0x352>
		Printf(3,"0%d:%d:0%d",hour, minute, second);
	} else if(minute < 10 && second < 10) {
     904:	80 91 06 02 	lds	r24, 0x0206
     908:	90 91 07 02 	lds	r25, 0x0207
     90c:	0a 97       	sbiw	r24, 0x0a	; 10
     90e:	0c f4       	brge	.+2      	; 0x912 <_Z7displayv+0x100>
     910:	31 c1       	rjmp	.+610    	; 0xb74 <_Z7displayv+0x362>
     912:	53 c1       	rjmp	.+678    	; 0xbba <_Z7displayv+0x3a8>
		Printf(3,"%d:0%d:0%d",hour, minute, second);
	} else if(minute < 10) {
		Printf(3,"%d:0%d:%d",hour, minute, second);
     914:	40 91 06 02 	lds	r20, 0x0206
     918:	50 91 07 02 	lds	r21, 0x0207
     91c:	20 91 04 02 	lds	r18, 0x0204
     920:	30 91 05 02 	lds	r19, 0x0205
     924:	80 91 d5 02 	lds	r24, 0x02D5
     928:	90 91 d6 02 	lds	r25, 0x02D6
     92c:	5f 93       	push	r21
     92e:	4f 93       	push	r20
     930:	3f 93       	push	r19
     932:	2f 93       	push	r18
     934:	9f 93       	push	r25
     936:	8f 93       	push	r24
     938:	8a e2       	ldi	r24, 0x2A	; 42
     93a:	92 e0       	ldi	r25, 0x02	; 2
     93c:	9f 93       	push	r25
     93e:	8f 93       	push	r24
     940:	83 e0       	ldi	r24, 0x03	; 3
     942:	8f 93       	push	r24
     944:	38 dd       	rcall	.-1424   	; 0x3b6 <_Z6PrintfhPcz>
     946:	8d b7       	in	r24, 0x3d	; 61
     948:	9e b7       	in	r25, 0x3e	; 62
     94a:	09 96       	adiw	r24, 0x09	; 9
     94c:	0f b6       	in	r0, 0x3f	; 63
     94e:	f8 94       	cli
     950:	9e bf       	out	0x3e, r25	; 62
     952:	0f be       	out	0x3f, r0	; 63
     954:	8d bf       	out	0x3d, r24	; 61
     956:	73 c0       	rjmp	.+230    	; 0xa3e <_Z7displayv+0x22c>
	} else if(second < 10) {
     958:	80 91 06 02 	lds	r24, 0x0206
     95c:	90 91 07 02 	lds	r25, 0x0207
     960:	0a 97       	sbiw	r24, 0x0a	; 10
     962:	1c f5       	brge	.+70     	; 0x9aa <_Z7displayv+0x198>
		Printf(3,"%d:%d:0%d",hour, minute, second);
     964:	40 91 06 02 	lds	r20, 0x0206
     968:	50 91 07 02 	lds	r21, 0x0207
     96c:	20 91 04 02 	lds	r18, 0x0204
     970:	30 91 05 02 	lds	r19, 0x0205
     974:	80 91 d5 02 	lds	r24, 0x02D5
     978:	90 91 d6 02 	lds	r25, 0x02D6
     97c:	5f 93       	push	r21
     97e:	4f 93       	push	r20
     980:	3f 93       	push	r19
     982:	2f 93       	push	r18
     984:	9f 93       	push	r25
     986:	8f 93       	push	r24
     988:	85 e3       	ldi	r24, 0x35	; 53
     98a:	92 e0       	ldi	r25, 0x02	; 2
     98c:	9f 93       	push	r25
     98e:	8f 93       	push	r24
     990:	83 e0       	ldi	r24, 0x03	; 3
     992:	8f 93       	push	r24
     994:	10 dd       	rcall	.-1504   	; 0x3b6 <_Z6PrintfhPcz>
     996:	2d b7       	in	r18, 0x3d	; 61
     998:	3e b7       	in	r19, 0x3e	; 62
     99a:	27 5f       	subi	r18, 0xF7	; 247
     99c:	3f 4f       	sbci	r19, 0xFF	; 255
     99e:	0f b6       	in	r0, 0x3f	; 63
     9a0:	f8 94       	cli
     9a2:	3e bf       	out	0x3e, r19	; 62
     9a4:	0f be       	out	0x3f, r0	; 63
     9a6:	2d bf       	out	0x3d, r18	; 61
     9a8:	4a c0       	rjmp	.+148    	; 0xa3e <_Z7displayv+0x22c>
	} else if(hour < 10) {
     9aa:	80 91 d5 02 	lds	r24, 0x02D5
     9ae:	90 91 d6 02 	lds	r25, 0x02D6
     9b2:	0a 97       	sbiw	r24, 0x0a	; 10
     9b4:	14 f5       	brge	.+68     	; 0x9fa <_Z7displayv+0x1e8>
		Printf(3,"0%d:%d:%d",hour, minute, second);
     9b6:	40 91 06 02 	lds	r20, 0x0206
     9ba:	50 91 07 02 	lds	r21, 0x0207
     9be:	20 91 04 02 	lds	r18, 0x0204
     9c2:	30 91 05 02 	lds	r19, 0x0205
     9c6:	80 91 d5 02 	lds	r24, 0x02D5
     9ca:	90 91 d6 02 	lds	r25, 0x02D6
     9ce:	5f 93       	push	r21
     9d0:	4f 93       	push	r20
     9d2:	3f 93       	push	r19
     9d4:	2f 93       	push	r18
     9d6:	9f 93       	push	r25
     9d8:	8f 93       	push	r24
     9da:	8a e0       	ldi	r24, 0x0A	; 10
     9dc:	92 e0       	ldi	r25, 0x02	; 2
     9de:	9f 93       	push	r25
     9e0:	8f 93       	push	r24
     9e2:	83 e0       	ldi	r24, 0x03	; 3
     9e4:	8f 93       	push	r24
     9e6:	e7 dc       	rcall	.-1586   	; 0x3b6 <_Z6PrintfhPcz>
     9e8:	8d b7       	in	r24, 0x3d	; 61
     9ea:	9e b7       	in	r25, 0x3e	; 62
     9ec:	09 96       	adiw	r24, 0x09	; 9
     9ee:	0f b6       	in	r0, 0x3f	; 63
     9f0:	f8 94       	cli
     9f2:	9e bf       	out	0x3e, r25	; 62
     9f4:	0f be       	out	0x3f, r0	; 63
     9f6:	8d bf       	out	0x3d, r24	; 61
     9f8:	22 c0       	rjmp	.+68     	; 0xa3e <_Z7displayv+0x22c>
	}else {
		Printf(3,"%d:%d:%d",hour, minute, second);
     9fa:	40 91 06 02 	lds	r20, 0x0206
     9fe:	50 91 07 02 	lds	r21, 0x0207
     a02:	20 91 04 02 	lds	r18, 0x0204
     a06:	30 91 05 02 	lds	r19, 0x0205
     a0a:	80 91 d5 02 	lds	r24, 0x02D5
     a0e:	90 91 d6 02 	lds	r25, 0x02D6
     a12:	5f 93       	push	r21
     a14:	4f 93       	push	r20
     a16:	3f 93       	push	r19
     a18:	2f 93       	push	r18
     a1a:	9f 93       	push	r25
     a1c:	8f 93       	push	r24
     a1e:	8b e0       	ldi	r24, 0x0B	; 11
     a20:	92 e0       	ldi	r25, 0x02	; 2
     a22:	9f 93       	push	r25
     a24:	8f 93       	push	r24
     a26:	83 e0       	ldi	r24, 0x03	; 3
     a28:	8f 93       	push	r24
     a2a:	c5 dc       	rcall	.-1654   	; 0x3b6 <_Z6PrintfhPcz>
     a2c:	2d b7       	in	r18, 0x3d	; 61
     a2e:	3e b7       	in	r19, 0x3e	; 62
     a30:	27 5f       	subi	r18, 0xF7	; 247
     a32:	3f 4f       	sbci	r19, 0xFF	; 255
     a34:	0f b6       	in	r0, 0x3f	; 63
     a36:	f8 94       	cli
     a38:	3e bf       	out	0x3e, r19	; 62
     a3a:	0f be       	out	0x3f, r0	; 63
     a3c:	2d bf       	out	0x3d, r18	; 61
	}
	
	if(timer_set) {
     a3e:	80 91 c4 02 	lds	r24, 0x02C4
     a42:	88 23       	and	r24, r24
     a44:	09 f4       	brne	.+2      	; 0xa48 <_Z7displayv+0x236>
     a46:	c1 c0       	rjmp	.+386    	; 0xbca <_Z7displayv+0x3b8>
		lcd_gotoxy(lcd_pos,4);
     a48:	64 e0       	ldi	r22, 0x04	; 4
     a4a:	80 91 c5 02 	lds	r24, 0x02C5
     a4e:	29 dc       	rcall	.-1966   	; 0x2a2 <_Z10lcd_gotoxyhh>
     a50:	bc c0       	rjmp	.+376    	; 0xbca <_Z7displayv+0x3b8>
	lcd_gotoxy(13,0);
	Printf(5,"%fC",skin_temp);
	lcd_gotoxy(3,1);
	Printf(5,"%d%",humidity);
	if(hour == 0 && minute == 0 && second == 0) {
		Printf(3,"00:00:00");
     a52:	84 e1       	ldi	r24, 0x14	; 20
     a54:	92 e0       	ldi	r25, 0x02	; 2
     a56:	9f 93       	push	r25
     a58:	8f 93       	push	r24
     a5a:	83 e0       	ldi	r24, 0x03	; 3
     a5c:	8f 93       	push	r24
     a5e:	ab dc       	rcall	.-1706   	; 0x3b6 <_Z6PrintfhPcz>
     a60:	0f 90       	pop	r0
     a62:	0f 90       	pop	r0
     a64:	0f 90       	pop	r0
     a66:	eb cf       	rjmp	.-42     	; 0xa3e <_Z7displayv+0x22c>
	} else if(hour < 10 && minute < 10 && second < 10) {
     a68:	80 91 d5 02 	lds	r24, 0x02D5
     a6c:	90 91 d6 02 	lds	r25, 0x02D6
     a70:	0a 97       	sbiw	r24, 0x0a	; 10
     a72:	0c f4       	brge	.+2      	; 0xa76 <_Z7displayv+0x264>
     a74:	28 cf       	rjmp	.-432    	; 0x8c6 <_Z7displayv+0xb4>
		Printf(3,"0%d:0%d:0%d",hour, minute, second);
	} else if(hour < 10 && minute < 10) {
     a76:	80 91 d5 02 	lds	r24, 0x02D5
     a7a:	90 91 d6 02 	lds	r25, 0x02D6
     a7e:	0a 97       	sbiw	r24, 0x0a	; 10
     a80:	0c f4       	brge	.+2      	; 0xa84 <_Z7displayv+0x272>
     a82:	30 cf       	rjmp	.-416    	; 0x8e4 <_Z7displayv+0xd2>
     a84:	45 c0       	rjmp	.+138    	; 0xb10 <_Z7displayv+0x2fe>
	lcd_gotoxy(3,1);
	Printf(5,"%d%",humidity);
	if(hour == 0 && minute == 0 && second == 0) {
		Printf(3,"00:00:00");
	} else if(hour < 10 && minute < 10 && second < 10) {
		Printf(3,"0%d:0%d:0%d",hour, minute, second);
     a86:	40 91 06 02 	lds	r20, 0x0206
     a8a:	50 91 07 02 	lds	r21, 0x0207
     a8e:	20 91 04 02 	lds	r18, 0x0204
     a92:	30 91 05 02 	lds	r19, 0x0205
     a96:	80 91 d5 02 	lds	r24, 0x02D5
     a9a:	90 91 d6 02 	lds	r25, 0x02D6
     a9e:	5f 93       	push	r21
     aa0:	4f 93       	push	r20
     aa2:	3f 93       	push	r19
     aa4:	2f 93       	push	r18
     aa6:	9f 93       	push	r25
     aa8:	8f 93       	push	r24
     aaa:	8d e1       	ldi	r24, 0x1D	; 29
     aac:	92 e0       	ldi	r25, 0x02	; 2
     aae:	9f 93       	push	r25
     ab0:	8f 93       	push	r24
     ab2:	83 e0       	ldi	r24, 0x03	; 3
     ab4:	8f 93       	push	r24
     ab6:	7f dc       	rcall	.-1794   	; 0x3b6 <_Z6PrintfhPcz>
     ab8:	8d b7       	in	r24, 0x3d	; 61
     aba:	9e b7       	in	r25, 0x3e	; 62
     abc:	09 96       	adiw	r24, 0x09	; 9
     abe:	0f b6       	in	r0, 0x3f	; 63
     ac0:	f8 94       	cli
     ac2:	9e bf       	out	0x3e, r25	; 62
     ac4:	0f be       	out	0x3f, r0	; 63
     ac6:	8d bf       	out	0x3d, r24	; 61
     ac8:	ba cf       	rjmp	.-140    	; 0xa3e <_Z7displayv+0x22c>
	} else if(hour < 10 && minute < 10) {
		Printf(3,"0%d:0%d:%d",hour, minute, second);
     aca:	40 91 06 02 	lds	r20, 0x0206
     ace:	50 91 07 02 	lds	r21, 0x0207
     ad2:	20 91 04 02 	lds	r18, 0x0204
     ad6:	30 91 05 02 	lds	r19, 0x0205
     ada:	80 91 d5 02 	lds	r24, 0x02D5
     ade:	90 91 d6 02 	lds	r25, 0x02D6
     ae2:	5f 93       	push	r21
     ae4:	4f 93       	push	r20
     ae6:	3f 93       	push	r19
     ae8:	2f 93       	push	r18
     aea:	9f 93       	push	r25
     aec:	8f 93       	push	r24
     aee:	89 e2       	ldi	r24, 0x29	; 41
     af0:	92 e0       	ldi	r25, 0x02	; 2
     af2:	9f 93       	push	r25
     af4:	8f 93       	push	r24
     af6:	83 e0       	ldi	r24, 0x03	; 3
     af8:	8f 93       	push	r24
     afa:	5d dc       	rcall	.-1862   	; 0x3b6 <_Z6PrintfhPcz>
     afc:	2d b7       	in	r18, 0x3d	; 61
     afe:	3e b7       	in	r19, 0x3e	; 62
     b00:	27 5f       	subi	r18, 0xF7	; 247
     b02:	3f 4f       	sbci	r19, 0xFF	; 255
     b04:	0f b6       	in	r0, 0x3f	; 63
     b06:	f8 94       	cli
     b08:	3e bf       	out	0x3e, r19	; 62
     b0a:	0f be       	out	0x3f, r0	; 63
     b0c:	2d bf       	out	0x3d, r18	; 61
     b0e:	97 cf       	rjmp	.-210    	; 0xa3e <_Z7displayv+0x22c>
	} else if(hour < 10 && second < 10) {
     b10:	80 91 d5 02 	lds	r24, 0x02D5
     b14:	90 91 d6 02 	lds	r25, 0x02D6
     b18:	0a 97       	sbiw	r24, 0x0a	; 10
     b1a:	0c f4       	brge	.+2      	; 0xb1e <_Z7displayv+0x30c>
     b1c:	eb ce       	rjmp	.-554    	; 0x8f4 <_Z7displayv+0xe2>
     b1e:	22 c0       	rjmp	.+68     	; 0xb64 <_Z7displayv+0x352>
		Printf(3,"0%d:%d:0%d",hour, minute, second);
     b20:	40 91 06 02 	lds	r20, 0x0206
     b24:	50 91 07 02 	lds	r21, 0x0207
     b28:	20 91 04 02 	lds	r18, 0x0204
     b2c:	30 91 05 02 	lds	r19, 0x0205
     b30:	80 91 d5 02 	lds	r24, 0x02D5
     b34:	90 91 d6 02 	lds	r25, 0x02D6
     b38:	5f 93       	push	r21
     b3a:	4f 93       	push	r20
     b3c:	3f 93       	push	r19
     b3e:	2f 93       	push	r18
     b40:	9f 93       	push	r25
     b42:	8f 93       	push	r24
     b44:	84 e3       	ldi	r24, 0x34	; 52
     b46:	92 e0       	ldi	r25, 0x02	; 2
     b48:	9f 93       	push	r25
     b4a:	8f 93       	push	r24
     b4c:	83 e0       	ldi	r24, 0x03	; 3
     b4e:	8f 93       	push	r24
     b50:	32 dc       	rcall	.-1948   	; 0x3b6 <_Z6PrintfhPcz>
     b52:	8d b7       	in	r24, 0x3d	; 61
     b54:	9e b7       	in	r25, 0x3e	; 62
     b56:	09 96       	adiw	r24, 0x09	; 9
     b58:	0f b6       	in	r0, 0x3f	; 63
     b5a:	f8 94       	cli
     b5c:	9e bf       	out	0x3e, r25	; 62
     b5e:	0f be       	out	0x3f, r0	; 63
     b60:	8d bf       	out	0x3d, r24	; 61
     b62:	6d cf       	rjmp	.-294    	; 0xa3e <_Z7displayv+0x22c>
	} else if(minute < 10 && second < 10) {
     b64:	80 91 04 02 	lds	r24, 0x0204
     b68:	90 91 05 02 	lds	r25, 0x0205
     b6c:	0a 97       	sbiw	r24, 0x0a	; 10
     b6e:	0c f4       	brge	.+2      	; 0xb72 <_Z7displayv+0x360>
     b70:	c9 ce       	rjmp	.-622    	; 0x904 <_Z7displayv+0xf2>
     b72:	23 c0       	rjmp	.+70     	; 0xbba <_Z7displayv+0x3a8>
		Printf(3,"%d:0%d:0%d",hour, minute, second);
     b74:	40 91 06 02 	lds	r20, 0x0206
     b78:	50 91 07 02 	lds	r21, 0x0207
     b7c:	20 91 04 02 	lds	r18, 0x0204
     b80:	30 91 05 02 	lds	r19, 0x0205
     b84:	80 91 d5 02 	lds	r24, 0x02D5
     b88:	90 91 d6 02 	lds	r25, 0x02D6
     b8c:	5f 93       	push	r21
     b8e:	4f 93       	push	r20
     b90:	3f 93       	push	r19
     b92:	2f 93       	push	r18
     b94:	9f 93       	push	r25
     b96:	8f 93       	push	r24
     b98:	8e e1       	ldi	r24, 0x1E	; 30
     b9a:	92 e0       	ldi	r25, 0x02	; 2
     b9c:	9f 93       	push	r25
     b9e:	8f 93       	push	r24
     ba0:	83 e0       	ldi	r24, 0x03	; 3
     ba2:	8f 93       	push	r24
     ba4:	08 dc       	rcall	.-2032   	; 0x3b6 <_Z6PrintfhPcz>
     ba6:	2d b7       	in	r18, 0x3d	; 61
     ba8:	3e b7       	in	r19, 0x3e	; 62
     baa:	27 5f       	subi	r18, 0xF7	; 247
     bac:	3f 4f       	sbci	r19, 0xFF	; 255
     bae:	0f b6       	in	r0, 0x3f	; 63
     bb0:	f8 94       	cli
     bb2:	3e bf       	out	0x3e, r19	; 62
     bb4:	0f be       	out	0x3f, r0	; 63
     bb6:	2d bf       	out	0x3d, r18	; 61
     bb8:	42 cf       	rjmp	.-380    	; 0xa3e <_Z7displayv+0x22c>
	} else if(minute < 10) {
     bba:	80 91 04 02 	lds	r24, 0x0204
     bbe:	90 91 05 02 	lds	r25, 0x0205
     bc2:	0a 97       	sbiw	r24, 0x0a	; 10
     bc4:	0c f0       	brlt	.+2      	; 0xbc8 <_Z7displayv+0x3b6>
     bc6:	c8 ce       	rjmp	.-624    	; 0x958 <_Z7displayv+0x146>
     bc8:	a5 ce       	rjmp	.-694    	; 0x914 <_Z7displayv+0x102>
	}
	
	if(timer_set) {
		lcd_gotoxy(lcd_pos,4);
	}
}
     bca:	df 91       	pop	r29
     bcc:	cf 91       	pop	r28
     bce:	1f 91       	pop	r17
     bd0:	08 95       	ret

00000bd2 <_Z3seti>:

void set(int key) {
	time[count] = key;
     bd2:	20 91 c7 02 	lds	r18, 0x02C7
     bd6:	30 91 c8 02 	lds	r19, 0x02C8
     bda:	e9 ec       	ldi	r30, 0xC9	; 201
     bdc:	f2 e0       	ldi	r31, 0x02	; 2
     bde:	d9 01       	movw	r26, r18
     be0:	aa 0f       	add	r26, r26
     be2:	bb 1f       	adc	r27, r27
     be4:	ae 0f       	add	r26, r30
     be6:	bf 1f       	adc	r27, r31
     be8:	8d 93       	st	X+, r24
     bea:	9c 93       	st	X, r25
	count++;
     bec:	2f 5f       	subi	r18, 0xFF	; 255
     bee:	3f 4f       	sbci	r19, 0xFF	; 255
     bf0:	30 93 c8 02 	sts	0x02C8, r19
     bf4:	20 93 c7 02 	sts	0x02C7, r18
	hour = hour = time[0] * 10 + time[1];
     bf8:	80 81       	ld	r24, Z
     bfa:	91 81       	ldd	r25, Z+1	; 0x01
     bfc:	88 0f       	add	r24, r24
     bfe:	99 1f       	adc	r25, r25
     c00:	9c 01       	movw	r18, r24
     c02:	22 0f       	add	r18, r18
     c04:	33 1f       	adc	r19, r19
     c06:	22 0f       	add	r18, r18
     c08:	33 1f       	adc	r19, r19
     c0a:	82 0f       	add	r24, r18
     c0c:	93 1f       	adc	r25, r19
     c0e:	20 91 cb 02 	lds	r18, 0x02CB
     c12:	30 91 cc 02 	lds	r19, 0x02CC
     c16:	82 0f       	add	r24, r18
     c18:	93 1f       	adc	r25, r19
     c1a:	90 93 d6 02 	sts	0x02D6, r25
     c1e:	80 93 d5 02 	sts	0x02D5, r24
     c22:	90 93 d6 02 	sts	0x02D6, r25
     c26:	80 93 d5 02 	sts	0x02D5, r24
	if(hour < 0 || hour > 23) {
     c2a:	80 91 d5 02 	lds	r24, 0x02D5
     c2e:	90 91 d6 02 	lds	r25, 0x02D6
     c32:	99 23       	and	r25, r25
     c34:	34 f0       	brlt	.+12     	; 0xc42 <_Z3seti+0x70>
     c36:	80 91 d5 02 	lds	r24, 0x02D5
     c3a:	90 91 d6 02 	lds	r25, 0x02D6
     c3e:	48 97       	sbiw	r24, 0x18	; 24
     c40:	54 f0       	brlt	.+20     	; 0xc56 <_Z3seti+0x84>
		count = 0;
     c42:	10 92 c8 02 	sts	0x02C8, r1
     c46:	10 92 c7 02 	sts	0x02C7, r1
		lcd_pos = -1;
     c4a:	8f ef       	ldi	r24, 0xFF	; 255
     c4c:	9f ef       	ldi	r25, 0xFF	; 255
     c4e:	90 93 c6 02 	sts	0x02C6, r25
     c52:	80 93 c5 02 	sts	0x02C5, r24
	}
	minute = time[2] * 10 + time[3];
     c56:	ed ec       	ldi	r30, 0xCD	; 205
     c58:	f2 e0       	ldi	r31, 0x02	; 2
     c5a:	80 81       	ld	r24, Z
     c5c:	91 81       	ldd	r25, Z+1	; 0x01
     c5e:	88 0f       	add	r24, r24
     c60:	99 1f       	adc	r25, r25
     c62:	9c 01       	movw	r18, r24
     c64:	22 0f       	add	r18, r18
     c66:	33 1f       	adc	r19, r19
     c68:	22 0f       	add	r18, r18
     c6a:	33 1f       	adc	r19, r19
     c6c:	82 0f       	add	r24, r18
     c6e:	93 1f       	adc	r25, r19
     c70:	20 91 cf 02 	lds	r18, 0x02CF
     c74:	30 91 d0 02 	lds	r19, 0x02D0
     c78:	82 0f       	add	r24, r18
     c7a:	93 1f       	adc	r25, r19
     c7c:	90 93 05 02 	sts	0x0205, r25
     c80:	80 93 04 02 	sts	0x0204, r24
	if(minute > 59 || minute < 0) {
     c84:	80 91 04 02 	lds	r24, 0x0204
     c88:	90 91 05 02 	lds	r25, 0x0205
     c8c:	cc 97       	sbiw	r24, 0x3c	; 60
     c8e:	34 f4       	brge	.+12     	; 0xc9c <_Z3seti+0xca>
     c90:	80 91 04 02 	lds	r24, 0x0204
     c94:	90 91 05 02 	lds	r25, 0x0205
     c98:	99 23       	and	r25, r25
     c9a:	34 f4       	brge	.+12     	; 0xca8 <_Z3seti+0xd6>
		count = 2;
     c9c:	82 e0       	ldi	r24, 0x02	; 2
     c9e:	90 e0       	ldi	r25, 0x00	; 0
     ca0:	90 93 c8 02 	sts	0x02C8, r25
     ca4:	80 93 c7 02 	sts	0x02C7, r24
	}
	second = time[4] * 10 + time[5];
     ca8:	e1 ed       	ldi	r30, 0xD1	; 209
     caa:	f2 e0       	ldi	r31, 0x02	; 2
     cac:	80 81       	ld	r24, Z
     cae:	91 81       	ldd	r25, Z+1	; 0x01
     cb0:	88 0f       	add	r24, r24
     cb2:	99 1f       	adc	r25, r25
     cb4:	9c 01       	movw	r18, r24
     cb6:	22 0f       	add	r18, r18
     cb8:	33 1f       	adc	r19, r19
     cba:	22 0f       	add	r18, r18
     cbc:	33 1f       	adc	r19, r19
     cbe:	82 0f       	add	r24, r18
     cc0:	93 1f       	adc	r25, r19
     cc2:	20 91 d3 02 	lds	r18, 0x02D3
     cc6:	30 91 d4 02 	lds	r19, 0x02D4
     cca:	82 0f       	add	r24, r18
     ccc:	93 1f       	adc	r25, r19
     cce:	90 93 07 02 	sts	0x0207, r25
     cd2:	80 93 06 02 	sts	0x0206, r24
	if(second > 59 || second < 0) {
     cd6:	80 91 06 02 	lds	r24, 0x0206
     cda:	90 91 07 02 	lds	r25, 0x0207
     cde:	cc 97       	sbiw	r24, 0x3c	; 60
     ce0:	34 f4       	brge	.+12     	; 0xcee <_Z3seti+0x11c>
     ce2:	80 91 06 02 	lds	r24, 0x0206
     ce6:	90 91 07 02 	lds	r25, 0x0207
     cea:	99 23       	and	r25, r25
     cec:	3c f4       	brge	.+14     	; 0xcfc <_Z3seti+0x12a>
		count = 4;
     cee:	84 e0       	ldi	r24, 0x04	; 4
     cf0:	90 e0       	ldi	r25, 0x00	; 0
     cf2:	90 93 c8 02 	sts	0x02C8, r25
     cf6:	80 93 c7 02 	sts	0x02C7, r24
     cfa:	11 c0       	rjmp	.+34     	; 0xd1e <_Z3seti+0x14c>
	}
	
	if(count == 2) {
     cfc:	80 91 c7 02 	lds	r24, 0x02C7
     d00:	90 91 c8 02 	lds	r25, 0x02C8
     d04:	82 30       	cpi	r24, 0x02	; 2
     d06:	91 05       	cpc	r25, r1
     d08:	39 f4       	brne	.+14     	; 0xd18 <_Z3seti+0x146>
		lcd_pos = count + 1;
     d0a:	83 e0       	ldi	r24, 0x03	; 3
     d0c:	90 e0       	ldi	r25, 0x00	; 0
     d0e:	90 93 c6 02 	sts	0x02C6, r25
     d12:	80 93 c5 02 	sts	0x02C5, r24
     d16:	08 95       	ret
	} else if(count == 4) {
     d18:	84 30       	cpi	r24, 0x04	; 4
     d1a:	91 05       	cpc	r25, r1
     d1c:	39 f4       	brne	.+14     	; 0xd2c <_Z3seti+0x15a>
		lcd_pos = count + 2;
     d1e:	86 e0       	ldi	r24, 0x06	; 6
     d20:	90 e0       	ldi	r25, 0x00	; 0
     d22:	90 93 c6 02 	sts	0x02C6, r25
     d26:	80 93 c5 02 	sts	0x02C5, r24
     d2a:	08 95       	ret
	}else {
		lcd_pos++;
     d2c:	20 91 c5 02 	lds	r18, 0x02C5
     d30:	30 91 c6 02 	lds	r19, 0x02C6
     d34:	2f 5f       	subi	r18, 0xFF	; 255
     d36:	3f 4f       	sbci	r19, 0xFF	; 255
     d38:	30 93 c6 02 	sts	0x02C6, r19
     d3c:	20 93 c5 02 	sts	0x02C5, r18
	}
	if(count == 6) {
     d40:	06 97       	sbiw	r24, 0x06	; 6
     d42:	41 f4       	brne	.+16     	; 0xd54 <_Z3seti+0x182>
		count = 0;
     d44:	10 92 c8 02 	sts	0x02C8, r1
     d48:	10 92 c7 02 	sts	0x02C7, r1
		lcd_pos = 0;
     d4c:	10 92 c6 02 	sts	0x02C6, r1
     d50:	10 92 c5 02 	sts	0x02C5, r1
     d54:	08 95       	ret

00000d56 <__vector_47>:
	}
}

ISR(TIMER5_COMPA_vect) {
     d56:	1f 92       	push	r1
     d58:	0f 92       	push	r0
     d5a:	0f b6       	in	r0, 0x3f	; 63
     d5c:	0f 92       	push	r0
     d5e:	11 24       	eor	r1, r1
     d60:	8f 93       	push	r24
	TCNT5 = 0;
     d62:	10 92 25 01 	sts	0x0125, r1
     d66:	10 92 24 01 	sts	0x0124, r1
	second_lapsed = true;
     d6a:	81 e0       	ldi	r24, 0x01	; 1
     d6c:	80 93 bb 02 	sts	0x02BB, r24
}
     d70:	8f 91       	pop	r24
     d72:	0f 90       	pop	r0
     d74:	0f be       	out	0x3f, r0	; 63
     d76:	0f 90       	pop	r0
     d78:	1f 90       	pop	r1
     d7a:	18 95       	reti

00000d7c <__vector_32>:

ISR(TIMER3_COMPA_vect) {
     d7c:	1f 92       	push	r1
     d7e:	0f 92       	push	r0
     d80:	0f b6       	in	r0, 0x3f	; 63
     d82:	0f 92       	push	r0
     d84:	11 24       	eor	r1, r1
     d86:	8f 93       	push	r24
	TCNT3 = 0;
     d88:	10 92 95 00 	sts	0x0095, r1
     d8c:	10 92 94 00 	sts	0x0094, r1
	heaterCountUpdate = true;
     d90:	81 e0       	ldi	r24, 0x01	; 1
     d92:	80 93 aa 02 	sts	0x02AA, r24
}
     d96:	8f 91       	pop	r24
     d98:	0f 90       	pop	r0
     d9a:	0f be       	out	0x3f, r0	; 63
     d9c:	0f 90       	pop	r0
     d9e:	1f 90       	pop	r1
     da0:	18 95       	reti

00000da2 <_Z5checkv>:

void check() {
     da2:	cf 93       	push	r28
		STOP_HEATER;
		incubator_running = false;
		timerr.stopTimer();
	}*/
	
	if(bit_is_clear(KEYPAD_BUTTON_PORT, KEYPAD_BUTTON_PIN) && !pressed_keypad) {
     da4:	80 91 06 01 	lds	r24, 0x0106
     da8:	84 fd       	sbrc	r24, 4
     daa:	b9 c0       	rjmp	.+370    	; 0xf1e <_Z5checkv+0x17c>
     dac:	80 91 b9 02 	lds	r24, 0x02B9
     db0:	81 11       	cpse	r24, r1
     db2:	b5 c0       	rjmp	.+362    	; 0xf1e <_Z5checkv+0x17c>
     db4:	b7 c0       	rjmp	.+366    	; 0xf24 <_Z5checkv+0x182>
		pressed_keypad = true;
		//lcd_clear();
		Printf(4, "KEYPAD ENABLED");
		keypad_enable = !keypad_enable;
		if(keypad_enable) {
			leds.led_do(KEYPAD_ENABLE_LED, ON);
     db6:	41 e0       	ldi	r20, 0x01	; 1
     db8:	50 e0       	ldi	r21, 0x00	; 0
     dba:	69 e0       	ldi	r22, 0x09	; 9
     dbc:	70 e0       	ldi	r23, 0x00	; 0
     dbe:	83 ea       	ldi	r24, 0xA3	; 163
     dc0:	92 e0       	ldi	r25, 0x02	; 2
     dc2:	0c d3       	rcall	.+1560   	; 0x13dc <_ZN3led6led_doEii>
     dc4:	07 c0       	rjmp	.+14     	; 0xdd4 <_Z5checkv+0x32>
		} else {
			leds.led_do(KEYPAD_ENABLE_LED, OFF);
     dc6:	40 e0       	ldi	r20, 0x00	; 0
     dc8:	50 e0       	ldi	r21, 0x00	; 0
     dca:	69 e0       	ldi	r22, 0x09	; 9
     dcc:	70 e0       	ldi	r23, 0x00	; 0
     dce:	83 ea       	ldi	r24, 0xA3	; 163
     dd0:	92 e0       	ldi	r25, 0x02	; 2
     dd2:	04 d3       	rcall	.+1544   	; 0x13dc <_ZN3led6led_doEii>
		}
	} else {
		pressed_keypad = false;
	}
	
	if(bit_is_clear(START_PHOTO_BUTTON_PORT, START_PHOTO_BUTTON_PIN) && !pressed_photo_start) {
     dd4:	7f 99       	sbic	0x0f, 7	; 15
     dd6:	cb c0       	rjmp	.+406    	; 0xf6e <_Z5checkv+0x1cc>
     dd8:	80 91 c0 02 	lds	r24, 0x02C0
     ddc:	81 11       	cpse	r24, r1
     dde:	c7 c0       	rjmp	.+398    	; 0xf6e <_Z5checkv+0x1cc>
     de0:	b6 c0       	rjmp	.+364    	; 0xf4e <_Z5checkv+0x1ac>
		
		//lcd_clear();
		Printf(4, "START PHOTO");
		if(door_closed) {
			photo_start = true;
     de2:	81 e0       	ldi	r24, 0x01	; 1
     de4:	80 93 c1 02 	sts	0x02C1, r24
			phototherapy.start_phototherapy(50);
     de8:	62 e3       	ldi	r22, 0x32	; 50
     dea:	70 e0       	ldi	r23, 0x00	; 0
     dec:	84 ea       	ldi	r24, 0xA4	; 164
     dee:	92 e0       	ldi	r25, 0x02	; 2
     df0:	92 d3       	rcall	.+1828   	; 0x1516 <_ZN12PhotoTherapy18start_phototherapyEi>
		}
		pressed_photo_start = true;
     df2:	81 e0       	ldi	r24, 0x01	; 1
     df4:	80 93 c0 02 	sts	0x02C0, r24
     df8:	02 c0       	rjmp	.+4      	; 0xdfe <_Z5checkv+0x5c>
		} else if(bit_is_set(START_PHOTO_BUTTON_PORT, START_PHOTO_BUTTON_PIN)) {
		pressed_photo_start = false;
     dfa:	10 92 c0 02 	sts	0x02C0, r1
	}
	
	if(bit_is_clear(STOP_PHOTO_BUTTON_PORT, STOP_PHOTO_BUTTON_PIN) && !pressed_photo_stop) {
     dfe:	80 91 06 01 	lds	r24, 0x0106
     e02:	80 fd       	sbrc	r24, 0
     e04:	ca c0       	rjmp	.+404    	; 0xf9a <_Z5checkv+0x1f8>
     e06:	80 91 bf 02 	lds	r24, 0x02BF
     e0a:	81 11       	cpse	r24, r1
     e0c:	c6 c0       	rjmp	.+396    	; 0xf9a <_Z5checkv+0x1f8>
     e0e:	b2 c0       	rjmp	.+356    	; 0xf74 <_Z5checkv+0x1d2>
		
		photo_start = false;
		phototherapy.stop_phototherapy();
		pressed_photo_stop = true;
		} else if(bit_is_set(STOP_PHOTO_BUTTON_PORT, STOP_PHOTO_BUTTON_PIN)) {
		pressed_photo_stop = false;
     e10:	10 92 bf 02 	sts	0x02BF, r1
	}
	
	if(bit_is_clear(START_INCUBATOR_BUTTON_PORT, START_INCUBATOR_BUTTON_PIN) && !pressed_incubator_start) {
     e14:	7d 99       	sbic	0x0f, 5	; 15
     e16:	0c c1       	rjmp	.+536    	; 0x1030 <_Z5checkv+0x28e>
     e18:	80 91 be 02 	lds	r24, 0x02BE
     e1c:	81 11       	cpse	r24, r1
     e1e:	08 c1       	rjmp	.+528    	; 0x1030 <_Z5checkv+0x28e>
     e20:	c1 c0       	rjmp	.+386    	; 0xfa4 <_Z5checkv+0x202>
			leds.led_do(HEATER_ON_LED, ON);
			leds.led_do(FAN_ON_LED, ON);
		}
		pressed_incubator_start = true;
		} else if(bit_is_set(START_INCUBATOR_BUTTON_PORT, START_INCUBATOR_BUTTON_PIN)) {
		pressed_incubator_start = false;
     e22:	10 92 be 02 	sts	0x02BE, r1
	}
	
	if(!timer_state && incubator_running) {
     e26:	80 91 c3 02 	lds	r24, 0x02C3
     e2a:	81 11       	cpse	r24, r1
     e2c:	33 c0       	rjmp	.+102    	; 0xe94 <_Z5checkv+0xf2>
     e2e:	80 91 c2 02 	lds	r24, 0x02C2
     e32:	88 23       	and	r24, r24
     e34:	79 f1       	breq	.+94     	; 0xe94 <_Z5checkv+0xf2>
		phototherapy.stop_phototherapy();
     e36:	84 ea       	ldi	r24, 0xA4	; 164
     e38:	92 e0       	ldi	r25, 0x02	; 2
     e3a:	77 d3       	rcall	.+1774   	; 0x152a <_ZN12PhotoTherapy17stop_phototherapyEv>
		incubator_running = false;
     e3c:	10 92 c2 02 	sts	0x02C2, r1
		timerr.stopTimer();
     e40:	88 ea       	ldi	r24, 0xA8	; 168
     e42:	92 e0       	ldi	r25, 0x02	; 2
     e44:	cf d3       	rcall	.+1950   	; 0x15e4 <_ZN6Timerr9stopTimerEv>
		leds.led_do(TIMER_RUNNING_LED, OFF);
     e46:	40 e0       	ldi	r20, 0x00	; 0
     e48:	50 e0       	ldi	r21, 0x00	; 0
     e4a:	66 e0       	ldi	r22, 0x06	; 6
     e4c:	70 e0       	ldi	r23, 0x00	; 0
     e4e:	83 ea       	ldi	r24, 0xA3	; 163
     e50:	92 e0       	ldi	r25, 0x02	; 2
     e52:	c4 d2       	rcall	.+1416   	; 0x13dc <_ZN3led6led_doEii>
		leds.led_do(HEATER_ON_LED, OFF);
     e54:	40 e0       	ldi	r20, 0x00	; 0
     e56:	50 e0       	ldi	r21, 0x00	; 0
     e58:	6c e0       	ldi	r22, 0x0C	; 12
     e5a:	70 e0       	ldi	r23, 0x00	; 0
     e5c:	83 ea       	ldi	r24, 0xA3	; 163
     e5e:	92 e0       	ldi	r25, 0x02	; 2
     e60:	bd d2       	rcall	.+1402   	; 0x13dc <_ZN3led6led_doEii>
		leds.led_do(FAN_ON_LED, OFF);
     e62:	40 e0       	ldi	r20, 0x00	; 0
     e64:	50 e0       	ldi	r21, 0x00	; 0
     e66:	6b e0       	ldi	r22, 0x0B	; 11
     e68:	70 e0       	ldi	r23, 0x00	; 0
     e6a:	83 ea       	ldi	r24, 0xA3	; 163
     e6c:	92 e0       	ldi	r25, 0x02	; 2
     e6e:	b6 d2       	rcall	.+1388   	; 0x13dc <_ZN3led6led_doEii>
		
		heaterCount = 60;
     e70:	8c e3       	ldi	r24, 0x3C	; 60
     e72:	90 e0       	ldi	r25, 0x00	; 0
     e74:	90 93 02 02 	sts	0x0202, r25
     e78:	80 93 01 02 	sts	0x0201, r24
		heatOn = true;
     e7c:	81 e0       	ldi	r24, 0x01	; 1
     e7e:	80 93 00 02 	sts	0x0200, r24
		timerHeater.stopTimer();
     e82:	86 ea       	ldi	r24, 0xA6	; 166
     e84:	92 e0       	ldi	r25, 0x02	; 2
     e86:	ae d3       	rcall	.+1884   	; 0x15e4 <_ZN6Timerr9stopTimerEv>
		
		controls.stopFan();
     e88:	82 ea       	ldi	r24, 0xA2	; 162
     e8a:	92 e0       	ldi	r25, 0x02	; 2
     e8c:	7f d9       	rcall	.-3330   	; 0x18c <_ZN8Controls7stopFanEv>
		controls.stopHeater();
     e8e:	82 ea       	ldi	r24, 0xA2	; 162
     e90:	92 e0       	ldi	r25, 0x02	; 2
     e92:	81 d9       	rcall	.-3326   	; 0x196 <_ZN8Controls10stopHeaterEv>
	}
	
	if(bit_is_clear(STOP_INCUBATOR_BUTTON_PORT, STOP_INCUBATOR_BUTTON_PIN) && !pressed_incubator_stop) {
     e94:	7e 99       	sbic	0x0f, 6	; 15
     e96:	0b c1       	rjmp	.+534    	; 0x10ae <_Z5checkv+0x30c>
     e98:	80 91 bd 02 	lds	r24, 0x02BD
     e9c:	81 11       	cpse	r24, r1
     e9e:	07 c1       	rjmp	.+526    	; 0x10ae <_Z5checkv+0x30c>
     ea0:	ca c0       	rjmp	.+404    	; 0x1036 <_Z5checkv+0x294>
		heaterCount = 60;
		heatOn = true;
		timerHeater.stopTimer();
		
		} else if(bit_is_set(STOP_INCUBATOR_BUTTON_PORT, STOP_INCUBATOR_BUTTON_PIN)) {
		pressed_incubator_stop = false;
     ea2:	10 92 bd 02 	sts	0x02BD, r1
		timerr.stopTimer();
	} else if(bit_is_clear(PINA, PINA4)) {
		pressed_system_fault = false;
	}*/
	
	if(bit_is_clear(RESET_BUTTON_PORT, RESET_BUTTON_PIN) && !pressed_restart_system) {
     ea6:	80 91 06 01 	lds	r24, 0x0106
     eaa:	81 fd       	sbrc	r24, 1
     eac:	03 c1       	rjmp	.+518    	; 0x10b4 <_Z5checkv+0x312>
     eae:	80 91 bc 02 	lds	r24, 0x02BC
     eb2:	81 11       	cpse	r24, r1
     eb4:	ff c0       	rjmp	.+510    	; 0x10b4 <_Z5checkv+0x312>
     eb6:	03 c1       	rjmp	.+518    	; 0x10be <_Z5checkv+0x31c>
		//lcd_clear();
		Printf(4, "RESET");
		pressed_restart_system = true;
		if(system_fault && door_closed) {
     eb8:	80 91 03 02 	lds	r24, 0x0203
     ebc:	88 23       	and	r24, r24
     ebe:	09 f4       	brne	.+2      	; 0xec2 <_Z5checkv+0x120>
     ec0:	0f c1       	rjmp	.+542    	; 0x10e0 <_Z5checkv+0x33e>
			system_fault = false;
     ec2:	10 92 b8 02 	sts	0x02B8, r1
			restart_system = true;
     ec6:	81 e0       	ldi	r24, 0x01	; 1
     ec8:	80 93 b7 02 	sts	0x02B7, r24
			incubator_running = true;
     ecc:	80 93 c2 02 	sts	0x02C2, r24
			timer_state = true;
     ed0:	80 93 c3 02 	sts	0x02C3, r24
			phototherapy.start_phototherapy(50);
     ed4:	62 e3       	ldi	r22, 0x32	; 50
     ed6:	70 e0       	ldi	r23, 0x00	; 0
     ed8:	84 ea       	ldi	r24, 0xA4	; 164
     eda:	92 e0       	ldi	r25, 0x02	; 2
     edc:	1c d3       	rcall	.+1592   	; 0x1516 <_ZN12PhotoTherapy18start_phototherapyEi>
			timer_set = false;
     ede:	10 92 c4 02 	sts	0x02C4, r1
			timerr.startCustomTimer(1000);
     ee2:	68 ee       	ldi	r22, 0xE8	; 232
     ee4:	73 e0       	ldi	r23, 0x03	; 3
     ee6:	88 ea       	ldi	r24, 0xA8	; 168
     ee8:	92 e0       	ldi	r25, 0x02	; 2
     eea:	cc d3       	rcall	.+1944   	; 0x1684 <_ZN6Timerr16startCustomTimerEi>
			leds.led_do(TIMER_RUNNING_LED, ON);
     eec:	41 e0       	ldi	r20, 0x01	; 1
     eee:	50 e0       	ldi	r21, 0x00	; 0
     ef0:	66 e0       	ldi	r22, 0x06	; 6
     ef2:	70 e0       	ldi	r23, 0x00	; 0
     ef4:	83 ea       	ldi	r24, 0xA3	; 163
     ef6:	92 e0       	ldi	r25, 0x02	; 2
     ef8:	71 d2       	rcall	.+1250   	; 0x13dc <_ZN3led6led_doEii>
			leds.led_do(HEATER_ON_LED, ON);
     efa:	41 e0       	ldi	r20, 0x01	; 1
     efc:	50 e0       	ldi	r21, 0x00	; 0
     efe:	6c e0       	ldi	r22, 0x0C	; 12
     f00:	70 e0       	ldi	r23, 0x00	; 0
     f02:	83 ea       	ldi	r24, 0xA3	; 163
     f04:	92 e0       	ldi	r25, 0x02	; 2
     f06:	6a d2       	rcall	.+1236   	; 0x13dc <_ZN3led6led_doEii>
			leds.led_do(FAN_ON_LED, ON);
     f08:	41 e0       	ldi	r20, 0x01	; 1
     f0a:	50 e0       	ldi	r21, 0x00	; 0
     f0c:	6b e0       	ldi	r22, 0x0B	; 11
     f0e:	70 e0       	ldi	r23, 0x00	; 0
     f10:	83 ea       	ldi	r24, 0xA3	; 163
     f12:	92 e0       	ldi	r25, 0x02	; 2
     f14:	63 d2       	rcall	.+1222   	; 0x13dc <_ZN3led6led_doEii>
     f16:	e4 c0       	rjmp	.+456    	; 0x10e0 <_Z5checkv+0x33e>
		}
	} else if(bit_is_clear(RESET_BUTTON_PORT, RESET_BUTTON_PIN)){
		pressed_restart_system = false;
     f18:	10 92 bc 02 	sts	0x02BC, r1
     f1c:	e1 c0       	rjmp	.+450    	; 0x10e0 <_Z5checkv+0x33e>
			leds.led_do(KEYPAD_ENABLE_LED, ON);
		} else {
			leds.led_do(KEYPAD_ENABLE_LED, OFF);
		}
	} else {
		pressed_keypad = false;
     f1e:	10 92 b9 02 	sts	0x02B9, r1
     f22:	58 cf       	rjmp	.-336    	; 0xdd4 <_Z5checkv+0x32>
		incubator_running = false;
		timerr.stopTimer();
	}*/
	
	if(bit_is_clear(KEYPAD_BUTTON_PORT, KEYPAD_BUTTON_PIN) && !pressed_keypad) {
		pressed_keypad = true;
     f24:	c1 e0       	ldi	r28, 0x01	; 1
     f26:	c0 93 b9 02 	sts	0x02B9, r28
		//lcd_clear();
		Printf(4, "KEYPAD ENABLED");
     f2a:	8f e3       	ldi	r24, 0x3F	; 63
     f2c:	92 e0       	ldi	r25, 0x02	; 2
     f2e:	9f 93       	push	r25
     f30:	8f 93       	push	r24
     f32:	84 e0       	ldi	r24, 0x04	; 4
     f34:	8f 93       	push	r24
     f36:	3f da       	rcall	.-2946   	; 0x3b6 <_Z6PrintfhPcz>
		keypad_enable = !keypad_enable;
     f38:	80 91 ba 02 	lds	r24, 0x02BA
     f3c:	c8 27       	eor	r28, r24
     f3e:	c0 93 ba 02 	sts	0x02BA, r28
		if(keypad_enable) {
     f42:	0f 90       	pop	r0
     f44:	0f 90       	pop	r0
     f46:	0f 90       	pop	r0
     f48:	c1 11       	cpse	r28, r1
     f4a:	35 cf       	rjmp	.-406    	; 0xdb6 <_Z5checkv+0x14>
     f4c:	3c cf       	rjmp	.-392    	; 0xdc6 <_Z5checkv+0x24>
	}
	
	if(bit_is_clear(START_PHOTO_BUTTON_PORT, START_PHOTO_BUTTON_PIN) && !pressed_photo_start) {
		
		//lcd_clear();
		Printf(4, "START PHOTO");
     f4e:	8e e4       	ldi	r24, 0x4E	; 78
     f50:	92 e0       	ldi	r25, 0x02	; 2
     f52:	9f 93       	push	r25
     f54:	8f 93       	push	r24
     f56:	84 e0       	ldi	r24, 0x04	; 4
     f58:	8f 93       	push	r24
     f5a:	2d da       	rcall	.-2982   	; 0x3b6 <_Z6PrintfhPcz>
		if(door_closed) {
     f5c:	0f 90       	pop	r0
     f5e:	0f 90       	pop	r0
     f60:	0f 90       	pop	r0
     f62:	80 91 03 02 	lds	r24, 0x0203
     f66:	88 23       	and	r24, r24
     f68:	09 f4       	brne	.+2      	; 0xf6c <_Z5checkv+0x1ca>
     f6a:	43 cf       	rjmp	.-378    	; 0xdf2 <_Z5checkv+0x50>
     f6c:	3a cf       	rjmp	.-396    	; 0xde2 <_Z5checkv+0x40>
			photo_start = true;
			phototherapy.start_phototherapy(50);
		}
		pressed_photo_start = true;
		} else if(bit_is_set(START_PHOTO_BUTTON_PORT, START_PHOTO_BUTTON_PIN)) {
     f6e:	7f 9b       	sbis	0x0f, 7	; 15
     f70:	46 cf       	rjmp	.-372    	; 0xdfe <_Z5checkv+0x5c>
     f72:	43 cf       	rjmp	.-378    	; 0xdfa <_Z5checkv+0x58>
		pressed_photo_start = false;
	}
	
	if(bit_is_clear(STOP_PHOTO_BUTTON_PORT, STOP_PHOTO_BUTTON_PIN) && !pressed_photo_stop) {
		//lcd_clear();
		Printf(4,"STOP PHOTO");
     f74:	8a e5       	ldi	r24, 0x5A	; 90
     f76:	92 e0       	ldi	r25, 0x02	; 2
     f78:	9f 93       	push	r25
     f7a:	8f 93       	push	r24
     f7c:	84 e0       	ldi	r24, 0x04	; 4
     f7e:	8f 93       	push	r24
     f80:	1a da       	rcall	.-3020   	; 0x3b6 <_Z6PrintfhPcz>
		
		photo_start = false;
     f82:	10 92 c1 02 	sts	0x02C1, r1
		phototherapy.stop_phototherapy();
     f86:	84 ea       	ldi	r24, 0xA4	; 164
     f88:	92 e0       	ldi	r25, 0x02	; 2
     f8a:	cf d2       	rcall	.+1438   	; 0x152a <_ZN12PhotoTherapy17stop_phototherapyEv>
		pressed_photo_stop = true;
     f8c:	81 e0       	ldi	r24, 0x01	; 1
     f8e:	80 93 bf 02 	sts	0x02BF, r24
     f92:	0f 90       	pop	r0
     f94:	0f 90       	pop	r0
     f96:	0f 90       	pop	r0
     f98:	3d cf       	rjmp	.-390    	; 0xe14 <_Z5checkv+0x72>
		} else if(bit_is_set(STOP_PHOTO_BUTTON_PORT, STOP_PHOTO_BUTTON_PIN)) {
     f9a:	80 91 06 01 	lds	r24, 0x0106
     f9e:	80 fd       	sbrc	r24, 0
     fa0:	37 cf       	rjmp	.-402    	; 0xe10 <_Z5checkv+0x6e>
     fa2:	38 cf       	rjmp	.-400    	; 0xe14 <_Z5checkv+0x72>
	}
	
	if(bit_is_clear(START_INCUBATOR_BUTTON_PORT, START_INCUBATOR_BUTTON_PIN) && !pressed_incubator_start) {
		
		//lcd_clear();
		Printf(4, "START INCUBATOR");
     fa4:	85 e6       	ldi	r24, 0x65	; 101
     fa6:	92 e0       	ldi	r25, 0x02	; 2
     fa8:	9f 93       	push	r25
     faa:	8f 93       	push	r24
     fac:	84 e0       	ldi	r24, 0x04	; 4
     fae:	8f 93       	push	r24
     fb0:	02 da       	rcall	.-3068   	; 0x3b6 <_Z6PrintfhPcz>
		
		if(true) {  //is door closed
			controls.startFan();
     fb2:	82 ea       	ldi	r24, 0xA2	; 162
     fb4:	92 e0       	ldi	r25, 0x02	; 2
     fb6:	e3 d8       	rcall	.-3642   	; 0x17e <_ZN8Controls8startFanEv>
			controls.startHeater();
     fb8:	82 ea       	ldi	r24, 0xA2	; 162
     fba:	92 e0       	ldi	r25, 0x02	; 2
     fbc:	e5 d8       	rcall	.-3638   	; 0x188 <_ZN8Controls11startHeaterEv>
			
			heaterCount = 60;
     fbe:	8c e3       	ldi	r24, 0x3C	; 60
     fc0:	90 e0       	ldi	r25, 0x00	; 0
     fc2:	90 93 02 02 	sts	0x0202, r25
     fc6:	80 93 01 02 	sts	0x0201, r24
			heatOn = true;
     fca:	c1 e0       	ldi	r28, 0x01	; 1
     fcc:	c0 93 00 02 	sts	0x0200, r28
			timerHeater.startCustomTimer(1000);
     fd0:	68 ee       	ldi	r22, 0xE8	; 232
     fd2:	73 e0       	ldi	r23, 0x03	; 3
     fd4:	86 ea       	ldi	r24, 0xA6	; 166
     fd6:	92 e0       	ldi	r25, 0x02	; 2
     fd8:	55 d3       	rcall	.+1706   	; 0x1684 <_ZN6Timerr16startCustomTimerEi>
			
			incubator_running = true;
     fda:	c0 93 c2 02 	sts	0x02C2, r28
			timer_state = true;
     fde:	c0 93 c3 02 	sts	0x02C3, r28
			phototherapy.start_phototherapy(50);
     fe2:	62 e3       	ldi	r22, 0x32	; 50
     fe4:	70 e0       	ldi	r23, 0x00	; 0
     fe6:	84 ea       	ldi	r24, 0xA4	; 164
     fe8:	92 e0       	ldi	r25, 0x02	; 2
     fea:	95 d2       	rcall	.+1322   	; 0x1516 <_ZN12PhotoTherapy18start_phototherapyEi>
			timer_set = false;
     fec:	10 92 c4 02 	sts	0x02C4, r1
			timerr.startCustomTimer(1000);
     ff0:	68 ee       	ldi	r22, 0xE8	; 232
     ff2:	73 e0       	ldi	r23, 0x03	; 3
     ff4:	88 ea       	ldi	r24, 0xA8	; 168
     ff6:	92 e0       	ldi	r25, 0x02	; 2
     ff8:	45 d3       	rcall	.+1674   	; 0x1684 <_ZN6Timerr16startCustomTimerEi>
			leds.led_do(TIMER_RUNNING_LED, ON);
     ffa:	41 e0       	ldi	r20, 0x01	; 1
     ffc:	50 e0       	ldi	r21, 0x00	; 0
     ffe:	66 e0       	ldi	r22, 0x06	; 6
    1000:	70 e0       	ldi	r23, 0x00	; 0
    1002:	83 ea       	ldi	r24, 0xA3	; 163
    1004:	92 e0       	ldi	r25, 0x02	; 2
    1006:	ea d1       	rcall	.+980    	; 0x13dc <_ZN3led6led_doEii>
			leds.led_do(HEATER_ON_LED, ON);
    1008:	41 e0       	ldi	r20, 0x01	; 1
    100a:	50 e0       	ldi	r21, 0x00	; 0
    100c:	6c e0       	ldi	r22, 0x0C	; 12
    100e:	70 e0       	ldi	r23, 0x00	; 0
    1010:	83 ea       	ldi	r24, 0xA3	; 163
    1012:	92 e0       	ldi	r25, 0x02	; 2
    1014:	e3 d1       	rcall	.+966    	; 0x13dc <_ZN3led6led_doEii>
			leds.led_do(FAN_ON_LED, ON);
    1016:	41 e0       	ldi	r20, 0x01	; 1
    1018:	50 e0       	ldi	r21, 0x00	; 0
    101a:	6b e0       	ldi	r22, 0x0B	; 11
    101c:	70 e0       	ldi	r23, 0x00	; 0
    101e:	83 ea       	ldi	r24, 0xA3	; 163
    1020:	92 e0       	ldi	r25, 0x02	; 2
    1022:	dc d1       	rcall	.+952    	; 0x13dc <_ZN3led6led_doEii>
		}
		pressed_incubator_start = true;
    1024:	c0 93 be 02 	sts	0x02BE, r28
    1028:	0f 90       	pop	r0
    102a:	0f 90       	pop	r0
    102c:	0f 90       	pop	r0
    102e:	fb ce       	rjmp	.-522    	; 0xe26 <_Z5checkv+0x84>
		} else if(bit_is_set(START_INCUBATOR_BUTTON_PORT, START_INCUBATOR_BUTTON_PIN)) {
    1030:	7d 99       	sbic	0x0f, 5	; 15
    1032:	f7 ce       	rjmp	.-530    	; 0xe22 <_Z5checkv+0x80>
    1034:	f8 ce       	rjmp	.-528    	; 0xe26 <_Z5checkv+0x84>
	}
	
	if(bit_is_clear(STOP_INCUBATOR_BUTTON_PORT, STOP_INCUBATOR_BUTTON_PIN) && !pressed_incubator_stop) {
		
		//lcd_clear();
		Printf(4, "STOP INCUBATOR");
    1036:	85 e7       	ldi	r24, 0x75	; 117
    1038:	92 e0       	ldi	r25, 0x02	; 2
    103a:	9f 93       	push	r25
    103c:	8f 93       	push	r24
    103e:	84 e0       	ldi	r24, 0x04	; 4
    1040:	8f 93       	push	r24
    1042:	b9 d9       	rcall	.-3214   	; 0x3b6 <_Z6PrintfhPcz>
		incubator_running = false;
    1044:	10 92 c2 02 	sts	0x02C2, r1
		phototherapy.stop_phototherapy();
    1048:	84 ea       	ldi	r24, 0xA4	; 164
    104a:	92 e0       	ldi	r25, 0x02	; 2
    104c:	6e d2       	rcall	.+1244   	; 0x152a <_ZN12PhotoTherapy17stop_phototherapyEv>
		timerr.stopTimer();
    104e:	88 ea       	ldi	r24, 0xA8	; 168
    1050:	92 e0       	ldi	r25, 0x02	; 2
    1052:	c8 d2       	rcall	.+1424   	; 0x15e4 <_ZN6Timerr9stopTimerEv>
		pressed_incubator_stop = true;
    1054:	c1 e0       	ldi	r28, 0x01	; 1
    1056:	c0 93 bd 02 	sts	0x02BD, r28
		leds.led_do(TIMER_RUNNING_LED, OFF);
    105a:	40 e0       	ldi	r20, 0x00	; 0
    105c:	50 e0       	ldi	r21, 0x00	; 0
    105e:	66 e0       	ldi	r22, 0x06	; 6
    1060:	70 e0       	ldi	r23, 0x00	; 0
    1062:	83 ea       	ldi	r24, 0xA3	; 163
    1064:	92 e0       	ldi	r25, 0x02	; 2
    1066:	ba d1       	rcall	.+884    	; 0x13dc <_ZN3led6led_doEii>
		leds.led_do(HEATER_ON_LED, OFF);
    1068:	40 e0       	ldi	r20, 0x00	; 0
    106a:	50 e0       	ldi	r21, 0x00	; 0
    106c:	6c e0       	ldi	r22, 0x0C	; 12
    106e:	70 e0       	ldi	r23, 0x00	; 0
    1070:	83 ea       	ldi	r24, 0xA3	; 163
    1072:	92 e0       	ldi	r25, 0x02	; 2
    1074:	b3 d1       	rcall	.+870    	; 0x13dc <_ZN3led6led_doEii>
		leds.led_do(FAN_ON_LED, OFF);
    1076:	40 e0       	ldi	r20, 0x00	; 0
    1078:	50 e0       	ldi	r21, 0x00	; 0
    107a:	6b e0       	ldi	r22, 0x0B	; 11
    107c:	70 e0       	ldi	r23, 0x00	; 0
    107e:	83 ea       	ldi	r24, 0xA3	; 163
    1080:	92 e0       	ldi	r25, 0x02	; 2
    1082:	ac d1       	rcall	.+856    	; 0x13dc <_ZN3led6led_doEii>
		controls.stopFan();
    1084:	82 ea       	ldi	r24, 0xA2	; 162
    1086:	92 e0       	ldi	r25, 0x02	; 2
    1088:	81 d8       	rcall	.-3838   	; 0x18c <_ZN8Controls7stopFanEv>
		controls.stopHeater();
    108a:	82 ea       	ldi	r24, 0xA2	; 162
    108c:	92 e0       	ldi	r25, 0x02	; 2
    108e:	83 d8       	rcall	.-3834   	; 0x196 <_ZN8Controls10stopHeaterEv>
		
		heaterCount = 60;
    1090:	8c e3       	ldi	r24, 0x3C	; 60
    1092:	90 e0       	ldi	r25, 0x00	; 0
    1094:	90 93 02 02 	sts	0x0202, r25
    1098:	80 93 01 02 	sts	0x0201, r24
		heatOn = true;
    109c:	c0 93 00 02 	sts	0x0200, r28
		timerHeater.stopTimer();
    10a0:	86 ea       	ldi	r24, 0xA6	; 166
    10a2:	92 e0       	ldi	r25, 0x02	; 2
    10a4:	9f d2       	rcall	.+1342   	; 0x15e4 <_ZN6Timerr9stopTimerEv>
    10a6:	0f 90       	pop	r0
    10a8:	0f 90       	pop	r0
    10aa:	0f 90       	pop	r0
    10ac:	fc ce       	rjmp	.-520    	; 0xea6 <_Z5checkv+0x104>
		
		} else if(bit_is_set(STOP_INCUBATOR_BUTTON_PORT, STOP_INCUBATOR_BUTTON_PIN)) {
    10ae:	7e 99       	sbic	0x0f, 6	; 15
    10b0:	f8 ce       	rjmp	.-528    	; 0xea2 <_Z5checkv+0x100>
    10b2:	f9 ce       	rjmp	.-526    	; 0xea6 <_Z5checkv+0x104>
			timerr.startCustomTimer(1000);
			leds.led_do(TIMER_RUNNING_LED, ON);
			leds.led_do(HEATER_ON_LED, ON);
			leds.led_do(FAN_ON_LED, ON);
		}
	} else if(bit_is_clear(RESET_BUTTON_PORT, RESET_BUTTON_PIN)){
    10b4:	80 91 06 01 	lds	r24, 0x0106
    10b8:	81 ff       	sbrs	r24, 1
    10ba:	2e cf       	rjmp	.-420    	; 0xf18 <_Z5checkv+0x176>
    10bc:	11 c0       	rjmp	.+34     	; 0x10e0 <_Z5checkv+0x33e>
		pressed_system_fault = false;
	}*/
	
	if(bit_is_clear(RESET_BUTTON_PORT, RESET_BUTTON_PIN) && !pressed_restart_system) {
		//lcd_clear();
		Printf(4, "RESET");
    10be:	84 e8       	ldi	r24, 0x84	; 132
    10c0:	92 e0       	ldi	r25, 0x02	; 2
    10c2:	9f 93       	push	r25
    10c4:	8f 93       	push	r24
    10c6:	84 e0       	ldi	r24, 0x04	; 4
    10c8:	8f 93       	push	r24
    10ca:	75 d9       	rcall	.-3350   	; 0x3b6 <_Z6PrintfhPcz>
		pressed_restart_system = true;
    10cc:	81 e0       	ldi	r24, 0x01	; 1
    10ce:	80 93 bc 02 	sts	0x02BC, r24
		if(system_fault && door_closed) {
    10d2:	0f 90       	pop	r0
    10d4:	0f 90       	pop	r0
    10d6:	0f 90       	pop	r0
    10d8:	80 91 b8 02 	lds	r24, 0x02B8
    10dc:	81 11       	cpse	r24, r1
    10de:	ec ce       	rjmp	.-552    	; 0xeb8 <_Z5checkv+0x116>
			leds.led_do(FAN_ON_LED, ON);
		}
	} else if(bit_is_clear(RESET_BUTTON_PORT, RESET_BUTTON_PIN)){
		pressed_restart_system = false;
	}
}
    10e0:	cf 91       	pop	r28
    10e2:	08 95       	ret

000010e4 <_Z11update_timev>:

void update_time() {
	if(second_lapsed) {
    10e4:	80 91 bb 02 	lds	r24, 0x02BB
    10e8:	88 23       	and	r24, r24
    10ea:	09 f4       	brne	.+2      	; 0x10ee <_Z11update_timev+0xa>
    10ec:	49 c0       	rjmp	.+146    	; 0x1180 <_Z11update_timev+0x9c>
		second_lapsed = false;
    10ee:	10 92 bb 02 	sts	0x02BB, r1
		second--;
    10f2:	80 91 06 02 	lds	r24, 0x0206
    10f6:	90 91 07 02 	lds	r25, 0x0207
    10fa:	01 97       	sbiw	r24, 0x01	; 1
    10fc:	90 93 07 02 	sts	0x0207, r25
    1100:	80 93 06 02 	sts	0x0206, r24
		if(second < 0) {
    1104:	80 91 06 02 	lds	r24, 0x0206
    1108:	90 91 07 02 	lds	r25, 0x0207
    110c:	99 23       	and	r25, r25
    110e:	c4 f5       	brge	.+112    	; 0x1180 <_Z11update_timev+0x9c>
			minute--;
    1110:	80 91 04 02 	lds	r24, 0x0204
    1114:	90 91 05 02 	lds	r25, 0x0205
    1118:	01 97       	sbiw	r24, 0x01	; 1
    111a:	90 93 05 02 	sts	0x0205, r25
    111e:	80 93 04 02 	sts	0x0204, r24
			second = 59;
    1122:	8b e3       	ldi	r24, 0x3B	; 59
    1124:	90 e0       	ldi	r25, 0x00	; 0
    1126:	90 93 07 02 	sts	0x0207, r25
    112a:	80 93 06 02 	sts	0x0206, r24
			if(minute < 0) {
    112e:	80 91 04 02 	lds	r24, 0x0204
    1132:	90 91 05 02 	lds	r25, 0x0205
    1136:	99 23       	and	r25, r25
    1138:	1c f5       	brge	.+70     	; 0x1180 <_Z11update_timev+0x9c>
				hour--;
    113a:	80 91 d5 02 	lds	r24, 0x02D5
    113e:	90 91 d6 02 	lds	r25, 0x02D6
    1142:	01 97       	sbiw	r24, 0x01	; 1
    1144:	90 93 d6 02 	sts	0x02D6, r25
    1148:	80 93 d5 02 	sts	0x02D5, r24
				minute = 59;
    114c:	8b e3       	ldi	r24, 0x3B	; 59
    114e:	90 e0       	ldi	r25, 0x00	; 0
    1150:	90 93 05 02 	sts	0x0205, r25
    1154:	80 93 04 02 	sts	0x0204, r24
				if(hour < 0) {
    1158:	80 91 d5 02 	lds	r24, 0x02D5
    115c:	90 91 d6 02 	lds	r25, 0x02D6
    1160:	99 23       	and	r25, r25
    1162:	74 f4       	brge	.+28     	; 0x1180 <_Z11update_timev+0x9c>
					second = 0;
    1164:	10 92 07 02 	sts	0x0207, r1
    1168:	10 92 06 02 	sts	0x0206, r1
					minute = 0;
    116c:	10 92 05 02 	sts	0x0205, r1
    1170:	10 92 04 02 	sts	0x0204, r1
					hour = 0;
    1174:	10 92 d6 02 	sts	0x02D6, r1
    1178:	10 92 d5 02 	sts	0x02D5, r1
					timer_state = false;
    117c:	10 92 c3 02 	sts	0x02C3, r1
    1180:	08 95       	ret

00001182 <main>:
PhotoTherapy phototherapy;
led leds;
Controls controls;
int main(void)
{
	sei();
    1182:	78 94       	sei
	//init_devices();
	setADC();
    1184:	11 db       	rcall	.-2526   	; 0x7a8 <_Z6setADCv>
	keypad_init();
    1186:	0b da       	rcall	.-3050   	; 0x59e <_Z11keypad_initv>
	lcd_init();
    1188:	9f d8       	rcall	.-3778   	; 0x2c8 <_Z8lcd_initv>
	lcd_clear();
    118a:	64 d8       	rcall	.-3896   	; 0x254 <_Z9lcd_clearv>
	leds.led_init();
    118c:	83 ea       	ldi	r24, 0xA3	; 163
    118e:	92 e0       	ldi	r25, 0x02	; 2
    1190:	10 d1       	rcall	.+544    	; 0x13b2 <_ZN3led8led_initEv>
	leds.led_do(SYSTEM_FAULT_LED, ON);
	leds.led_do(FAN_ON_LED, ON);
	leds.led_do(HEATER_ON_LED, ON);
	*/
	
	phototherapy.init_phototherapy(4000);
    1192:	60 ea       	ldi	r22, 0xA0	; 160
    1194:	7f e0       	ldi	r23, 0x0F	; 15
    1196:	84 ea       	ldi	r24, 0xA4	; 164
    1198:	92 e0       	ldi	r25, 0x02	; 2
    119a:	b8 d1       	rcall	.+880    	; 0x150c <_ZN12PhotoTherapy17init_phototherapyEi>
	
	
	controls.initControls();
    119c:	82 ea       	ldi	r24, 0xA2	; 162
    119e:	92 e0       	ldi	r25, 0x02	; 2
    11a0:	0e 94 a5 00 	call	0x14a	; 0x14a <_ZN8Controls12initControlsEv>
	
	timerr.setTimerNum(5);
    11a4:	65 e0       	ldi	r22, 0x05	; 5
    11a6:	70 e0       	ldi	r23, 0x00	; 0
    11a8:	88 ea       	ldi	r24, 0xA8	; 168
    11aa:	92 e0       	ldi	r25, 0x02	; 2
    11ac:	17 d2       	rcall	.+1070   	; 0x15dc <_ZN6Timerr11setTimerNumEi>
	timerr.setCompareInterrupt();
    11ae:	88 ea       	ldi	r24, 0xA8	; 168
    11b0:	92 e0       	ldi	r25, 0x02	; 2
    11b2:	40 d2       	rcall	.+1152   	; 0x1634 <_ZN6Timerr19setCompareInterruptEv>
	
	timerHeater.setTimerNum(3);
    11b4:	63 e0       	ldi	r22, 0x03	; 3
    11b6:	70 e0       	ldi	r23, 0x00	; 0
    11b8:	86 ea       	ldi	r24, 0xA6	; 166
    11ba:	92 e0       	ldi	r25, 0x02	; 2
    11bc:	0f d2       	rcall	.+1054   	; 0x15dc <_ZN6Timerr11setTimerNumEi>
	timerHeater.setCompareInterrupt();
    11be:	86 ea       	ldi	r24, 0xA6	; 166
    11c0:	92 e0       	ldi	r25, 0x02	; 2
    11c2:	38 d2       	rcall	.+1136   	; 0x1634 <_ZN6Timerr19setCompareInterruptEv>
	
	Printf(1,"TA:%fC   TS:%fC",air_temp,skin_temp);
    11c4:	80 91 b0 02 	lds	r24, 0x02B0
    11c8:	8f 93       	push	r24
    11ca:	80 91 af 02 	lds	r24, 0x02AF
    11ce:	8f 93       	push	r24
    11d0:	80 91 ae 02 	lds	r24, 0x02AE
    11d4:	8f 93       	push	r24
    11d6:	80 91 ad 02 	lds	r24, 0x02AD
    11da:	8f 93       	push	r24
    11dc:	80 91 b4 02 	lds	r24, 0x02B4
    11e0:	8f 93       	push	r24
    11e2:	80 91 b3 02 	lds	r24, 0x02B3
    11e6:	8f 93       	push	r24
    11e8:	80 91 b2 02 	lds	r24, 0x02B2
    11ec:	8f 93       	push	r24
    11ee:	80 91 b1 02 	lds	r24, 0x02B1
    11f2:	8f 93       	push	r24
    11f4:	8a e8       	ldi	r24, 0x8A	; 138
    11f6:	92 e0       	ldi	r25, 0x02	; 2
    11f8:	9f 93       	push	r25
    11fa:	8f 93       	push	r24
    11fc:	81 e0       	ldi	r24, 0x01	; 1
    11fe:	8f 93       	push	r24
    1200:	da d8       	rcall	.-3660   	; 0x3b6 <_Z6PrintfhPcz>
	Printf(2,"RH:%d%",humidity);
    1202:	80 91 b6 02 	lds	r24, 0x02B6
    1206:	8f 93       	push	r24
    1208:	80 91 b5 02 	lds	r24, 0x02B5
    120c:	8f 93       	push	r24
    120e:	8a e9       	ldi	r24, 0x9A	; 154
    1210:	92 e0       	ldi	r25, 0x02	; 2
    1212:	9f 93       	push	r25
    1214:	8f 93       	push	r24
    1216:	82 e0       	ldi	r24, 0x02	; 2
    1218:	8f 93       	push	r24
    121a:	cd d8       	rcall	.-3686   	; 0x3b6 <_Z6PrintfhPcz>
	Printf(3,"00:00:00");
    121c:	84 e1       	ldi	r24, 0x14	; 20
    121e:	92 e0       	ldi	r25, 0x02	; 2
    1220:	9f 93       	push	r25
    1222:	8f 93       	push	r24
    1224:	83 e0       	ldi	r24, 0x03	; 3
    1226:	8f 93       	push	r24
    1228:	c6 d8       	rcall	.-3700   	; 0x3b6 <_Z6PrintfhPcz>
    122a:	8d b7       	in	r24, 0x3d	; 61
    122c:	9e b7       	in	r25, 0x3e	; 62
    122e:	43 96       	adiw	r24, 0x13	; 19
    1230:	0f b6       	in	r0, 0x3f	; 63
    1232:	f8 94       	cli
    1234:	9e bf       	out	0x3e, r25	; 62
    1236:	0f be       	out	0x3f, r0	; 63
    1238:	8d bf       	out	0x3d, r24	; 61
				if(heaterCount == 0 && heatOn) {
					heaterCount = 30;
					heatOn = false;
					controls.stopHeater();
				} else if(heaterCount == 0 && !heatOn) {
					heaterCount = 60;
    123a:	0c e3       	ldi	r16, 0x3C	; 60
    123c:	10 e0       	ldi	r17, 0x00	; 0
			update_time();
			if(heaterCountUpdate) {
				heaterCountUpdate = false;
				heaterCount--;
				if(heaterCount == 0 && heatOn) {
					heaterCount = 30;
    123e:	ce e1       	ldi	r28, 0x1E	; 30
    1240:	d0 e0       	ldi	r29, 0x00	; 0
	Printf(2,"RH:%d%",humidity);
	Printf(3,"00:00:00");

    while(1)
    {
		check();
    1242:	af dd       	rcall	.-1186   	; 0xda2 <_Z5checkv>
		
		/*For Led */
		int adc = adc_read(LM35_1);
    1244:	81 e0       	ldi	r24, 0x01	; 1
    1246:	cf da       	rcall	.-2658   	; 0x7e6 <_Z8adc_readh>
		air_temp = ((adc / 1024.0)) * 100;
    1248:	bc 01       	movw	r22, r24
    124a:	88 27       	eor	r24, r24
    124c:	77 fd       	sbrc	r23, 7
    124e:	80 95       	com	r24
    1250:	98 2f       	mov	r25, r24
    1252:	4a d3       	rcall	.+1684   	; 0x18e8 <__floatsisf>
    1254:	20 e0       	ldi	r18, 0x00	; 0
    1256:	30 e0       	ldi	r19, 0x00	; 0
    1258:	40 e8       	ldi	r20, 0x80	; 128
    125a:	5a e3       	ldi	r21, 0x3A	; 58
    125c:	d1 d3       	rcall	.+1954   	; 0x1a00 <__mulsf3>
    125e:	20 e0       	ldi	r18, 0x00	; 0
    1260:	30 e0       	ldi	r19, 0x00	; 0
    1262:	48 ec       	ldi	r20, 0xC8	; 200
    1264:	52 e4       	ldi	r21, 0x42	; 66
    1266:	cc d3       	rcall	.+1944   	; 0x1a00 <__mulsf3>
    1268:	26 2f       	mov	r18, r22
    126a:	37 2f       	mov	r19, r23
    126c:	46 2f       	mov	r20, r22
    126e:	57 2f       	mov	r21, r23
    1270:	68 2f       	mov	r22, r24
    1272:	79 2f       	mov	r23, r25
    1274:	40 93 b1 02 	sts	0x02B1, r20
    1278:	50 93 b2 02 	sts	0x02B2, r21
    127c:	60 93 b3 02 	sts	0x02B3, r22
    1280:	70 93 b4 02 	sts	0x02B4, r23
		int dutycycle = (adc/1024.0) * 100;
    1284:	62 2f       	mov	r22, r18
    1286:	73 2f       	mov	r23, r19
    1288:	fc d2       	rcall	.+1528   	; 0x1882 <__fixsfsi>
		phototherapy.change_brightness(dutycycle);
    128a:	84 ea       	ldi	r24, 0xA4	; 164
    128c:	92 e0       	ldi	r25, 0x02	; 2
    128e:	4b d1       	rcall	.+662    	; 0x1526 <_ZN12PhotoTherapy17change_brightnessEi>
		
		//air_temp = adc_read(LM35_1);
		int adc1 = adc_read(HUMIDITY);
    1290:	82 e0       	ldi	r24, 0x02	; 2
    1292:	a9 da       	rcall	.-2734   	; 0x7e6 <_Z8adc_readh>
		skin_temp = ((adc1 / 1024.0)) * 100;
    1294:	bc 01       	movw	r22, r24
    1296:	88 27       	eor	r24, r24
    1298:	77 fd       	sbrc	r23, 7
    129a:	80 95       	com	r24
    129c:	98 2f       	mov	r25, r24
    129e:	24 d3       	rcall	.+1608   	; 0x18e8 <__floatsisf>
    12a0:	20 e0       	ldi	r18, 0x00	; 0
    12a2:	30 e0       	ldi	r19, 0x00	; 0
    12a4:	40 e8       	ldi	r20, 0x80	; 128
    12a6:	5a e3       	ldi	r21, 0x3A	; 58
    12a8:	ab d3       	rcall	.+1878   	; 0x1a00 <__mulsf3>
    12aa:	20 e0       	ldi	r18, 0x00	; 0
    12ac:	30 e0       	ldi	r19, 0x00	; 0
    12ae:	48 ec       	ldi	r20, 0xC8	; 200
    12b0:	52 e4       	ldi	r21, 0x42	; 66
    12b2:	a6 d3       	rcall	.+1868   	; 0x1a00 <__mulsf3>
    12b4:	60 93 ad 02 	sts	0x02AD, r22
    12b8:	70 93 ae 02 	sts	0x02AE, r23
    12bc:	80 93 af 02 	sts	0x02AF, r24
    12c0:	90 93 b0 02 	sts	0x02B0, r25
		/*_delay_ms(20);
		
		humidity = adc_read(HUMIDITY);
		*/
		
		if(incubator_running) {
    12c4:	80 91 c2 02 	lds	r24, 0x02C2
    12c8:	88 23       	and	r24, r24
    12ca:	09 f1       	breq	.+66     	; 0x130e <main+0x18c>
			update_time();
    12cc:	0b df       	rcall	.-490    	; 0x10e4 <_Z11update_timev>
			if(heaterCountUpdate) {
    12ce:	80 91 aa 02 	lds	r24, 0x02AA
    12d2:	88 23       	and	r24, r24
    12d4:	e1 f0       	breq	.+56     	; 0x130e <main+0x18c>
				heaterCountUpdate = false;
    12d6:	10 92 aa 02 	sts	0x02AA, r1
				heaterCount--;
    12da:	80 91 01 02 	lds	r24, 0x0201
    12de:	90 91 02 02 	lds	r25, 0x0202
    12e2:	01 97       	sbiw	r24, 0x01	; 1
    12e4:	90 93 02 02 	sts	0x0202, r25
    12e8:	80 93 01 02 	sts	0x0201, r24
				if(heaterCount == 0 && heatOn) {
    12ec:	80 91 01 02 	lds	r24, 0x0201
    12f0:	90 91 02 02 	lds	r25, 0x0202
    12f4:	89 2b       	or	r24, r25
    12f6:	09 f0       	breq	.+2      	; 0x12fa <main+0x178>
    12f8:	43 c0       	rjmp	.+134    	; 0x1380 <main+0x1fe>
    12fa:	80 91 00 02 	lds	r24, 0x0200
    12fe:	81 11       	cpse	r24, r1
    1300:	34 c0       	rjmp	.+104    	; 0x136a <main+0x1e8>
    1302:	3e c0       	rjmp	.+124    	; 0x1380 <main+0x1fe>
					heaterCount = 30;
					heatOn = false;
					controls.stopHeater();
				} else if(heaterCount == 0 && !heatOn) {
    1304:	80 91 00 02 	lds	r24, 0x0200
    1308:	88 23       	and	r24, r24
    130a:	09 f4       	brne	.+2      	; 0x130e <main+0x18c>
    130c:	41 c0       	rjmp	.+130    	; 0x1390 <main+0x20e>
					heatOn = true;
					controls.startHeater();
				}
			}
		} 
		display();
    130e:	81 da       	rcall	.-2814   	; 0x812 <_Z7displayv>
		if(keypad_enable) {
    1310:	80 91 ba 02 	lds	r24, 0x02BA
    1314:	88 23       	and	r24, r24
    1316:	09 f4       	brne	.+2      	; 0x131a <main+0x198>
    1318:	94 cf       	rjmp	.-216    	; 0x1242 <main+0xc0>
			int key = get_key();
    131a:	32 da       	rcall	.-2972   	; 0x780 <_Z7get_keyv>
    131c:	28 2f       	mov	r18, r24
    131e:	39 2f       	mov	r19, r25
			if(key != last_key) {
    1320:	80 91 ab 02 	lds	r24, 0x02AB
    1324:	90 91 ac 02 	lds	r25, 0x02AC
    1328:	28 17       	cp	r18, r24
    132a:	39 07       	cpc	r19, r25
    132c:	09 f4       	brne	.+2      	; 0x1330 <main+0x1ae>
    132e:	89 cf       	rjmp	.-238    	; 0x1242 <main+0xc0>
				last_key = key;
    1330:	30 93 ac 02 	sts	0x02AC, r19
    1334:	20 93 ab 02 	sts	0x02AB, r18
				switch(key) {
    1338:	33 23       	and	r19, r19
    133a:	0c f4       	brge	.+2      	; 0x133e <main+0x1bc>
    133c:	82 cf       	rjmp	.-252    	; 0x1242 <main+0xc0>
    133e:	2a 30       	cpi	r18, 0x0A	; 10
    1340:	31 05       	cpc	r19, r1
    1342:	5c f0       	brlt	.+22     	; 0x135a <main+0x1d8>
    1344:	2d 30       	cpi	r18, 0x0D	; 13
    1346:	31 05       	cpc	r19, r1
    1348:	09 f0       	breq	.+2      	; 0x134c <main+0x1ca>
    134a:	7b cf       	rjmp	.-266    	; 0x1242 <main+0xc0>
					case BUTTON_A:
						timer_set = !timer_set;
    134c:	90 91 c4 02 	lds	r25, 0x02C4
    1350:	81 e0       	ldi	r24, 0x01	; 1
    1352:	89 27       	eor	r24, r25
    1354:	80 93 c4 02 	sts	0x02C4, r24
						break;
    1358:	74 cf       	rjmp	.-280    	; 0x1242 <main+0xc0>
					case BUTTON_7:
					case BUTTON_8:
					case BUTTON_9:
					case BUTTON_0:
						
						if(timer_set) {
    135a:	80 91 c4 02 	lds	r24, 0x02C4
    135e:	88 23       	and	r24, r24
    1360:	09 f4       	brne	.+2      	; 0x1364 <main+0x1e2>
    1362:	6f cf       	rjmp	.-290    	; 0x1242 <main+0xc0>
							set(key);
    1364:	c9 01       	movw	r24, r18
    1366:	35 dc       	rcall	.-1942   	; 0xbd2 <_Z3seti>
    1368:	6c cf       	rjmp	.-296    	; 0x1242 <main+0xc0>
			update_time();
			if(heaterCountUpdate) {
				heaterCountUpdate = false;
				heaterCount--;
				if(heaterCount == 0 && heatOn) {
					heaterCount = 30;
    136a:	d0 93 02 02 	sts	0x0202, r29
    136e:	c0 93 01 02 	sts	0x0201, r28
					heatOn = false;
    1372:	10 92 00 02 	sts	0x0200, r1
					controls.stopHeater();
    1376:	82 ea       	ldi	r24, 0xA2	; 162
    1378:	92 e0       	ldi	r25, 0x02	; 2
    137a:	0e 94 cb 00 	call	0x196	; 0x196 <_ZN8Controls10stopHeaterEv>
    137e:	c7 cf       	rjmp	.-114    	; 0x130e <main+0x18c>
				} else if(heaterCount == 0 && !heatOn) {
    1380:	80 91 01 02 	lds	r24, 0x0201
    1384:	90 91 02 02 	lds	r25, 0x0202
    1388:	89 2b       	or	r24, r25
    138a:	09 f4       	brne	.+2      	; 0x138e <main+0x20c>
    138c:	bb cf       	rjmp	.-138    	; 0x1304 <main+0x182>
    138e:	bf cf       	rjmp	.-130    	; 0x130e <main+0x18c>
					heaterCount = 60;
    1390:	10 93 02 02 	sts	0x0202, r17
    1394:	00 93 01 02 	sts	0x0201, r16
					heatOn = true;
    1398:	81 e0       	ldi	r24, 0x01	; 1
    139a:	80 93 00 02 	sts	0x0200, r24
					controls.startHeater();
    139e:	82 ea       	ldi	r24, 0xA2	; 162
    13a0:	92 e0       	ldi	r25, 0x02	; 2
    13a2:	0e 94 c4 00 	call	0x188	; 0x188 <_ZN8Controls11startHeaterEv>
    13a6:	b3 cf       	rjmp	.-154    	; 0x130e <main+0x18c>

000013a8 <_GLOBAL__sub_I__Z7lcd_cmdh>:
#define F_CPU 16000000UL
#endif
#include <avr/io.h>
#include <avr/interrupt.h>

class PWM {
    13a8:	10 92 a5 02 	sts	0x02A5, r1
    13ac:	10 92 a4 02 	sts	0x02A4, r1
    13b0:	08 95       	ret

000013b2 <_ZN3led8led_initEv>:
#include <avr/io.h>

#define DDR(x) (*(&x - 1))      /* address of data direction register of port x */

void led::led_init() {
	DDR(TS_HIGH_PORT) |= (1 << TS_HIGH_PIN);
    13b2:	ea e0       	ldi	r30, 0x0A	; 10
    13b4:	f1 e0       	ldi	r31, 0x01	; 1
    13b6:	80 81       	ld	r24, Z
    13b8:	84 60       	ori	r24, 0x04	; 4
    13ba:	80 83       	st	Z, r24
	DDR(TS_LOW_PORT) |= (1 << TS_LOW_PIN);
    13bc:	80 81       	ld	r24, Z
    13be:	80 61       	ori	r24, 0x10	; 16
    13c0:	80 83       	st	Z, r24
	DDR(RH_LOW_PORT) |= (1 << RH_LOW_PIN);	
    13c2:	9a 9a       	sbi	0x13, 2	; 19
	DDR(TA_HIGH_PORT) |= (1 << TA_HIGH_PIN);
    13c4:	98 9a       	sbi	0x13, 0	; 19
	DDR(TA_LOW_PORT) |= (1 << TA_LOW_PIN);
    13c6:	80 81       	ld	r24, Z
    13c8:	80 64       	ori	r24, 0x40	; 64
    13ca:	80 83       	st	Z, r24
	DDR(TIMER_RUNNING_LED_PORT) |= (1 << TIMER_RUNNING_LED_PIN);
    13cc:	0b 9a       	sbi	0x01, 3	; 1
	DDR(TIMER_STOP_LED_PORT) |= (1 << TIMER_STOP_LED_PIN);
    13ce:	09 9a       	sbi	0x01, 1	; 1
	DDR(DOOR_CLOSED_LED_PORT) |= (1 << DOOR_CLOSED_LED_PIN);
    13d0:	0d 9a       	sbi	0x01, 5	; 1
	DDR(KEYPAD_ENABLE_LED_PORT) |= (1 << KEYPAD_ENABLE_LED_PIN);
    13d2:	38 9a       	sbi	0x07, 0	; 7
	DDR(SYSTEM_FAULT_LED_PORT) |= (1 << SYSTEM_FAULT_LED_PIN);
    13d4:	3c 9a       	sbi	0x07, 4	; 7
	DDR(FAN_ON_LED_PORT) |= (1 << FAN_ON_LED_PIN);
    13d6:	0f 9a       	sbi	0x01, 7	; 1
	DDR(HEATER_ON_LED_PORT) |= (1 << HEATER_ON_LED_PIN);
    13d8:	3e 9a       	sbi	0x07, 6	; 7
    13da:	08 95       	ret

000013dc <_ZN3led6led_doEii>:
}


void led::led_do(int led_num, int state) {
	switch(led_num) {
    13dc:	66 30       	cpi	r22, 0x06	; 6
    13de:	71 05       	cpc	r23, r1
    13e0:	09 f4       	brne	.+2      	; 0x13e4 <_ZN3led6led_doEii+0x8>
    13e2:	6a c0       	rjmp	.+212    	; 0x14b8 <_ZN3led6led_doEii+0xdc>
    13e4:	a4 f4       	brge	.+40     	; 0x140e <_ZN3led6led_doEii+0x32>
    13e6:	62 30       	cpi	r22, 0x02	; 2
    13e8:	71 05       	cpc	r23, r1
    13ea:	09 f4       	brne	.+2      	; 0x13ee <_ZN3led6led_doEii+0x12>
    13ec:	4b c0       	rjmp	.+150    	; 0x1484 <_ZN3led6led_doEii+0xa8>
    13ee:	44 f4       	brge	.+16     	; 0x1400 <_ZN3led6led_doEii+0x24>
    13f0:	61 15       	cp	r22, r1
    13f2:	71 05       	cpc	r23, r1
    13f4:	99 f1       	breq	.+102    	; 0x145c <_ZN3led6led_doEii+0x80>
    13f6:	61 30       	cpi	r22, 0x01	; 1
    13f8:	71 05       	cpc	r23, r1
    13fa:	09 f0       	breq	.+2      	; 0x13fe <_ZN3led6led_doEii+0x22>
    13fc:	86 c0       	rjmp	.+268    	; 0x150a <_ZN3led6led_doEii+0x12e>
    13fe:	20 c0       	rjmp	.+64     	; 0x1440 <_ZN3led6led_doEii+0x64>
    1400:	64 30       	cpi	r22, 0x04	; 4
    1402:	71 05       	cpc	r23, r1
    1404:	09 f4       	brne	.+2      	; 0x1408 <_ZN3led6led_doEii+0x2c>
    1406:	4a c0       	rjmp	.+148    	; 0x149c <_ZN3led6led_doEii+0xc0>
    1408:	0c f0       	brlt	.+2      	; 0x140c <_ZN3led6led_doEii+0x30>
    140a:	42 c0       	rjmp	.+132    	; 0x1490 <_ZN3led6led_doEii+0xb4>
    140c:	35 c0       	rjmp	.+106    	; 0x1478 <_ZN3led6led_doEii+0x9c>
    140e:	69 30       	cpi	r22, 0x09	; 9
    1410:	71 05       	cpc	r23, r1
    1412:	09 f4       	brne	.+2      	; 0x1416 <_ZN3led6led_doEii+0x3a>
    1414:	63 c0       	rjmp	.+198    	; 0x14dc <_ZN3led6led_doEii+0x100>
    1416:	4c f4       	brge	.+18     	; 0x142a <_ZN3led6led_doEii+0x4e>
    1418:	67 30       	cpi	r22, 0x07	; 7
    141a:	71 05       	cpc	r23, r1
    141c:	09 f4       	brne	.+2      	; 0x1420 <_ZN3led6led_doEii+0x44>
    141e:	52 c0       	rjmp	.+164    	; 0x14c4 <_ZN3led6led_doEii+0xe8>
    1420:	68 30       	cpi	r22, 0x08	; 8
    1422:	71 05       	cpc	r23, r1
    1424:	09 f0       	breq	.+2      	; 0x1428 <_ZN3led6led_doEii+0x4c>
    1426:	71 c0       	rjmp	.+226    	; 0x150a <_ZN3led6led_doEii+0x12e>
    1428:	53 c0       	rjmp	.+166    	; 0x14d0 <_ZN3led6led_doEii+0xf4>
    142a:	6b 30       	cpi	r22, 0x0B	; 11
    142c:	71 05       	cpc	r23, r1
    142e:	09 f4       	brne	.+2      	; 0x1432 <_ZN3led6led_doEii+0x56>
    1430:	61 c0       	rjmp	.+194    	; 0x14f4 <_ZN3led6led_doEii+0x118>
    1432:	0c f4       	brge	.+2      	; 0x1436 <_ZN3led6led_doEii+0x5a>
    1434:	59 c0       	rjmp	.+178    	; 0x14e8 <_ZN3led6led_doEii+0x10c>
    1436:	6c 30       	cpi	r22, 0x0C	; 12
    1438:	71 05       	cpc	r23, r1
    143a:	09 f0       	breq	.+2      	; 0x143e <_ZN3led6led_doEii+0x62>
    143c:	66 c0       	rjmp	.+204    	; 0x150a <_ZN3led6led_doEii+0x12e>
    143e:	60 c0       	rjmp	.+192    	; 0x1500 <_ZN3led6led_doEii+0x124>
		case TS_HIGH_LED:
			REGISTER_LED(TS_HIGH_PORT, TS_HIGH_PIN, state);
    1440:	45 2b       	or	r20, r21
    1442:	31 f0       	breq	.+12     	; 0x1450 <_ZN3led6led_doEii+0x74>
    1444:	eb e0       	ldi	r30, 0x0B	; 11
    1446:	f1 e0       	ldi	r31, 0x01	; 1
    1448:	80 81       	ld	r24, Z
    144a:	84 60       	ori	r24, 0x04	; 4
    144c:	80 83       	st	Z, r24
    144e:	08 95       	ret
    1450:	eb e0       	ldi	r30, 0x0B	; 11
    1452:	f1 e0       	ldi	r31, 0x01	; 1
    1454:	80 81       	ld	r24, Z
    1456:	8b 7f       	andi	r24, 0xFB	; 251
    1458:	80 83       	st	Z, r24
    145a:	08 95       	ret
			break;
		case TS_LOW_LED:
			REGISTER_LED(TS_LOW_PORT, TS_LOW_PIN, state);
    145c:	45 2b       	or	r20, r21
    145e:	31 f0       	breq	.+12     	; 0x146c <_ZN3led6led_doEii+0x90>
    1460:	eb e0       	ldi	r30, 0x0B	; 11
    1462:	f1 e0       	ldi	r31, 0x01	; 1
    1464:	80 81       	ld	r24, Z
    1466:	80 61       	ori	r24, 0x10	; 16
    1468:	80 83       	st	Z, r24
    146a:	08 95       	ret
    146c:	eb e0       	ldi	r30, 0x0B	; 11
    146e:	f1 e0       	ldi	r31, 0x01	; 1
    1470:	80 81       	ld	r24, Z
    1472:	8f 7e       	andi	r24, 0xEF	; 239
    1474:	80 83       	st	Z, r24
    1476:	08 95       	ret
			break;
		case RH_HIGH_LED:
			REGISTER_LED(RH_HIGH_PORT, RH_HIGH_PIN, state);
    1478:	45 2b       	or	r20, r21
    147a:	11 f0       	breq	.+4      	; 0x1480 <_ZN3led6led_doEii+0xa4>
    147c:	a2 9a       	sbi	0x14, 2	; 20
    147e:	08 95       	ret
    1480:	a2 98       	cbi	0x14, 2	; 20
    1482:	08 95       	ret
			break;
		case RH_LOW_LED:
			REGISTER_LED(RH_LOW_PORT, RH_LOW_PIN, state);
    1484:	45 2b       	or	r20, r21
    1486:	11 f0       	breq	.+4      	; 0x148c <_ZN3led6led_doEii+0xb0>
    1488:	a2 9a       	sbi	0x14, 2	; 20
    148a:	08 95       	ret
    148c:	a2 98       	cbi	0x14, 2	; 20
    148e:	08 95       	ret
			break;
		case TA_HIGH_LED:
			REGISTER_LED(TA_HIGH_PORT, TA_HIGH_PIN, state);
    1490:	45 2b       	or	r20, r21
    1492:	11 f0       	breq	.+4      	; 0x1498 <_ZN3led6led_doEii+0xbc>
    1494:	a0 9a       	sbi	0x14, 0	; 20
    1496:	08 95       	ret
    1498:	a0 98       	cbi	0x14, 0	; 20
    149a:	08 95       	ret
			break;
		case TA_LOW_LED:
			REGISTER_LED(TA_LOW_PORT, TA_LOW_PIN, state);
    149c:	45 2b       	or	r20, r21
    149e:	31 f0       	breq	.+12     	; 0x14ac <_ZN3led6led_doEii+0xd0>
    14a0:	eb e0       	ldi	r30, 0x0B	; 11
    14a2:	f1 e0       	ldi	r31, 0x01	; 1
    14a4:	80 81       	ld	r24, Z
    14a6:	80 64       	ori	r24, 0x40	; 64
    14a8:	80 83       	st	Z, r24
    14aa:	08 95       	ret
    14ac:	eb e0       	ldi	r30, 0x0B	; 11
    14ae:	f1 e0       	ldi	r31, 0x01	; 1
    14b0:	80 81       	ld	r24, Z
    14b2:	8f 7b       	andi	r24, 0xBF	; 191
    14b4:	80 83       	st	Z, r24
    14b6:	08 95       	ret
			break;
		case TIMER_RUNNING_LED:
			REGISTER_LED(TIMER_RUNNING_LED_PORT, TIMER_RUNNING_LED_PIN, state);
    14b8:	45 2b       	or	r20, r21
    14ba:	11 f0       	breq	.+4      	; 0x14c0 <_ZN3led6led_doEii+0xe4>
    14bc:	13 9a       	sbi	0x02, 3	; 2
    14be:	08 95       	ret
    14c0:	13 98       	cbi	0x02, 3	; 2
    14c2:	08 95       	ret
			break;
		case DOOR_CLOSED_LED:
			REGISTER_LED(DOOR_CLOSED_LED_PORT, DOOR_CLOSED_LED_PIN, state);
    14c4:	45 2b       	or	r20, r21
    14c6:	11 f0       	breq	.+4      	; 0x14cc <_ZN3led6led_doEii+0xf0>
    14c8:	15 9a       	sbi	0x02, 5	; 2
    14ca:	08 95       	ret
    14cc:	15 98       	cbi	0x02, 5	; 2
    14ce:	08 95       	ret
			break;
		case TIMER_STOP_LED:
			REGISTER_LED(TIMER_STOP_LED_PORT, TIMER_STOP_LED_PIN, state);
    14d0:	45 2b       	or	r20, r21
    14d2:	11 f0       	breq	.+4      	; 0x14d8 <_ZN3led6led_doEii+0xfc>
    14d4:	11 9a       	sbi	0x02, 1	; 2
    14d6:	08 95       	ret
    14d8:	11 98       	cbi	0x02, 1	; 2
    14da:	08 95       	ret
			break;
		case KEYPAD_ENABLE_LED:
			REGISTER_LED(KEYPAD_ENABLE_LED_PORT, KEYPAD_ENABLE_LED_PIN, state);
    14dc:	45 2b       	or	r20, r21
    14de:	11 f0       	breq	.+4      	; 0x14e4 <_ZN3led6led_doEii+0x108>
    14e0:	40 9a       	sbi	0x08, 0	; 8
    14e2:	08 95       	ret
    14e4:	40 98       	cbi	0x08, 0	; 8
    14e6:	08 95       	ret
			break;
		case SYSTEM_FAULT_LED:
			REGISTER_LED(SYSTEM_FAULT_LED_PORT, SYSTEM_FAULT_LED_PIN, state);
    14e8:	45 2b       	or	r20, r21
    14ea:	11 f0       	breq	.+4      	; 0x14f0 <_ZN3led6led_doEii+0x114>
    14ec:	44 9a       	sbi	0x08, 4	; 8
    14ee:	08 95       	ret
    14f0:	44 98       	cbi	0x08, 4	; 8
    14f2:	08 95       	ret
			break;
		case FAN_ON_LED:
			REGISTER_LED(FAN_ON_LED_PORT, FAN_ON_LED_PIN, state);
    14f4:	45 2b       	or	r20, r21
    14f6:	11 f0       	breq	.+4      	; 0x14fc <_ZN3led6led_doEii+0x120>
    14f8:	17 9a       	sbi	0x02, 7	; 2
    14fa:	08 95       	ret
    14fc:	17 98       	cbi	0x02, 7	; 2
    14fe:	08 95       	ret
			break;
		case HEATER_ON_LED:
			REGISTER_LED(HEATER_ON_LED_PORT, HEATER_ON_LED_PIN, state);
    1500:	45 2b       	or	r20, r21
    1502:	11 f0       	breq	.+4      	; 0x1508 <_ZN3led6led_doEii+0x12c>
    1504:	46 9a       	sbi	0x08, 6	; 8
    1506:	08 95       	ret
    1508:	46 98       	cbi	0x08, 6	; 8
    150a:	08 95       	ret

0000150c <_ZN12PhotoTherapy17init_phototherapyEi>:
 */ 
#include "PhotoTherapy.h"


void PhotoTherapy::init_phototherapy(int frequency) {
	pwm_out.init_pwm(frequency);
    150c:	17 d0       	rcall	.+46     	; 0x153c <_ZN3PWM8init_pwmEi>
	DDR(PHOTO_PORT) |= (1 << PHOTO_PIN);
    150e:	26 9a       	sbi	0x04, 6	; 4
	DDR(PHOTO_PWM_PORT) |= (1 << PHOTO_PWM_PIN);
    1510:	25 9a       	sbi	0x04, 5	; 4
	PHOTO_PWM_PORT &=~ (1 << PHOTO_PWM_PIN);
    1512:	2d 98       	cbi	0x05, 5	; 5
    1514:	08 95       	ret

00001516 <_ZN12PhotoTherapy18start_phototherapyEi>:
	
}

void PhotoTherapy::start_phototherapy(int duty_cycle) {
	
	PHOTO_PORT |= (1 << PHOTO_PIN);
    1516:	2e 9a       	sbi	0x05, 6	; 5
	#else
		//round up by default
		__ticks_dc = (uint32_t)(ceil(fabs(__tmp)));
	#endif

	__builtin_avr_delay_cycles(__ticks_dc);
    1518:	e7 ea       	ldi	r30, 0xA7	; 167
    151a:	f1 e6       	ldi	r31, 0x61	; 97
    151c:	31 97       	sbiw	r30, 0x01	; 1
    151e:	f1 f7       	brne	.-4      	; 0x151c <_ZN12PhotoTherapy18start_phototherapyEi+0x6>
    1520:	00 c0       	rjmp	.+0      	; 0x1522 <_ZN12PhotoTherapy18start_phototherapyEi+0xc>
    1522:	00 00       	nop
	_delay_ms(100);
	pwm_out.start_pwm(duty_cycle);
    1524:	54 c0       	rjmp	.+168    	; 0x15ce <_ZN3PWM9start_pwmEi>

00001526 <_ZN12PhotoTherapy17change_brightnessEi>:
	
	
}

void PhotoTherapy::change_brightness(int duty_cycle) {
	pwm_out.set_pwm(duty_cycle);
    1526:	28 c0       	rjmp	.+80     	; 0x1578 <_ZN3PWM7set_pwmEi>
    1528:	08 95       	ret

0000152a <_ZN12PhotoTherapy17stop_phototherapyEv>:
}

void PhotoTherapy::stop_phototherapy() {
	pwm_out.stop_pwm();
    152a:	53 d0       	rcall	.+166    	; 0x15d2 <_ZN3PWM8stop_pwmEv>
    152c:	87 ea       	ldi	r24, 0xA7	; 167
    152e:	91 e6       	ldi	r25, 0x61	; 97
    1530:	01 97       	sbiw	r24, 0x01	; 1
    1532:	f1 f7       	brne	.-4      	; 0x1530 <_ZN12PhotoTherapy17stop_phototherapyEv+0x6>
    1534:	00 c0       	rjmp	.+0      	; 0x1536 <_ZN12PhotoTherapy17stop_phototherapyEv+0xc>
    1536:	00 00       	nop
	_delay_ms(100);
	PHOTO_PORT &=~ (1 << PHOTO_PIN);
    1538:	2e 98       	cbi	0x05, 6	; 5
    153a:	08 95       	ret

0000153c <_ZN3PWM8init_pwmEi>:
 */ 

#include "PWM.h"

void PWM::init_pwm(int frequency) {
	TCCR1A |= (1 << COM1A1); //clear on compare match
    153c:	e0 e8       	ldi	r30, 0x80	; 128
    153e:	f0 e0       	ldi	r31, 0x00	; 0
    1540:	20 81       	ld	r18, Z
    1542:	20 68       	ori	r18, 0x80	; 128
    1544:	20 83       	st	Z, r18
	TCCR1A |= (1 << WGM11); ////for fast pwm whose max is decided by ICR1
    1546:	20 81       	ld	r18, Z
    1548:	22 60       	ori	r18, 0x02	; 2
    154a:	20 83       	st	Z, r18
	TCCR1B |= (1 << WGM13) | (1 <<WGM12); //for fast pwm whose max is decided by ICR1
    154c:	e1 e8       	ldi	r30, 0x81	; 129
    154e:	f0 e0       	ldi	r31, 0x00	; 0
    1550:	20 81       	ld	r18, Z
    1552:	28 61       	ori	r18, 0x18	; 24
    1554:	20 83       	st	Z, r18
	//TIMSK1 |= (1 << ICIE1) | (1 << OCIE1A); //interrupt enable for output compare match
	TCCR1B |= (1 << CS11); //prescalar 8
    1556:	20 81       	ld	r18, Z
    1558:	22 60       	ori	r18, 0x02	; 2
    155a:	20 83       	st	Z, r18
	//top = (F_CPU/(8 * frequency * 1.0)) - 1;
	top = 2000;
    155c:	20 ed       	ldi	r18, 0xD0	; 208
    155e:	37 e0       	ldi	r19, 0x07	; 7
    1560:	fc 01       	movw	r30, r24
    1562:	31 83       	std	Z+1, r19	; 0x01
    1564:	20 83       	st	Z, r18
	ICR1 = top;
    1566:	30 93 87 00 	sts	0x0087, r19
    156a:	20 93 86 00 	sts	0x0086, r18
	OCR1A = 0;
    156e:	10 92 89 00 	sts	0x0089, r1
    1572:	10 92 88 00 	sts	0x0088, r1
    1576:	08 95       	ret

00001578 <_ZN3PWM7set_pwmEi>:
	
}

void PWM::set_pwm(int duty_cycle) {
    1578:	cf 92       	push	r12
    157a:	df 92       	push	r13
    157c:	ef 92       	push	r14
    157e:	ff 92       	push	r15
    1580:	cf 93       	push	r28
    1582:	df 93       	push	r29
    1584:	ec 01       	movw	r28, r24
	OCR1A = (duty_cycle/ 100.0) * top;
    1586:	88 27       	eor	r24, r24
    1588:	77 fd       	sbrc	r23, 7
    158a:	80 95       	com	r24
    158c:	98 2f       	mov	r25, r24
    158e:	ac d1       	rcall	.+856    	; 0x18e8 <__floatsisf>
    1590:	20 e0       	ldi	r18, 0x00	; 0
    1592:	30 e0       	ldi	r19, 0x00	; 0
    1594:	48 ec       	ldi	r20, 0xC8	; 200
    1596:	52 e4       	ldi	r21, 0x42	; 66
    1598:	0c d1       	rcall	.+536    	; 0x17b2 <__divsf3>
    159a:	6b 01       	movw	r12, r22
    159c:	7c 01       	movw	r14, r24
    159e:	68 81       	ld	r22, Y
    15a0:	79 81       	ldd	r23, Y+1	; 0x01
    15a2:	88 27       	eor	r24, r24
    15a4:	77 fd       	sbrc	r23, 7
    15a6:	80 95       	com	r24
    15a8:	98 2f       	mov	r25, r24
    15aa:	9e d1       	rcall	.+828    	; 0x18e8 <__floatsisf>
    15ac:	9b 01       	movw	r18, r22
    15ae:	ac 01       	movw	r20, r24
    15b0:	c7 01       	movw	r24, r14
    15b2:	b6 01       	movw	r22, r12
    15b4:	25 d2       	rcall	.+1098   	; 0x1a00 <__mulsf3>
    15b6:	6a d1       	rcall	.+724    	; 0x188c <__fixunssfsi>
    15b8:	70 93 89 00 	sts	0x0089, r23
    15bc:	60 93 88 00 	sts	0x0088, r22
}
    15c0:	df 91       	pop	r29
    15c2:	cf 91       	pop	r28
    15c4:	ff 90       	pop	r15
    15c6:	ef 90       	pop	r14
    15c8:	df 90       	pop	r13
    15ca:	cf 90       	pop	r12
    15cc:	08 95       	ret

000015ce <_ZN3PWM9start_pwmEi>:

void PWM::start_pwm(int duty_cycle) {
	
	PWM::set_pwm(duty_cycle); 
    15ce:	d4 cf       	rjmp	.-88     	; 0x1578 <_ZN3PWM7set_pwmEi>
    15d0:	08 95       	ret

000015d2 <_ZN3PWM8stop_pwmEv>:
}

void PWM::stop_pwm() {
	//TCCR1B &=~ ((1 << CS12) | (1 << CS11) | (1 << CS10));
	OCR1A = 0;
    15d2:	10 92 89 00 	sts	0x0089, r1
    15d6:	10 92 88 00 	sts	0x0088, r1
    15da:	08 95       	ret

000015dc <_ZN6Timerr11setTimerNumEi>:

void Timerr::resetTimer() {
	if(this->timer_no == 5){
		TCNT5 = 0;
	} else if(this->timer_no == 3) {
		TCNT3 = 0;
    15dc:	fc 01       	movw	r30, r24
    15de:	71 83       	std	Z+1, r23	; 0x01
    15e0:	60 83       	st	Z, r22
    15e2:	08 95       	ret

000015e4 <_ZN6Timerr9stopTimerEv>:
    15e4:	fc 01       	movw	r30, r24
    15e6:	80 81       	ld	r24, Z
    15e8:	91 81       	ldd	r25, Z+1	; 0x01
    15ea:	83 30       	cpi	r24, 0x03	; 3
    15ec:	91 05       	cpc	r25, r1
    15ee:	81 f0       	breq	.+32     	; 0x1610 <_ZN6Timerr9stopTimerEv+0x2c>
    15f0:	1c f4       	brge	.+6      	; 0x15f8 <_ZN6Timerr9stopTimerEv+0x14>
    15f2:	01 97       	sbiw	r24, 0x01	; 1
    15f4:	f1 f4       	brne	.+60     	; 0x1632 <_ZN6Timerr9stopTimerEv+0x4e>
    15f6:	06 c0       	rjmp	.+12     	; 0x1604 <_ZN6Timerr9stopTimerEv+0x20>
    15f8:	84 30       	cpi	r24, 0x04	; 4
    15fa:	91 05       	cpc	r25, r1
    15fc:	79 f0       	breq	.+30     	; 0x161c <_ZN6Timerr9stopTimerEv+0x38>
    15fe:	05 97       	sbiw	r24, 0x05	; 5
    1600:	c1 f4       	brne	.+48     	; 0x1632 <_ZN6Timerr9stopTimerEv+0x4e>
    1602:	12 c0       	rjmp	.+36     	; 0x1628 <_ZN6Timerr9stopTimerEv+0x44>
    1604:	e1 e8       	ldi	r30, 0x81	; 129
    1606:	f0 e0       	ldi	r31, 0x00	; 0
    1608:	80 81       	ld	r24, Z
    160a:	88 7f       	andi	r24, 0xF8	; 248
    160c:	80 83       	st	Z, r24
    160e:	08 95       	ret
    1610:	e1 e9       	ldi	r30, 0x91	; 145
    1612:	f0 e0       	ldi	r31, 0x00	; 0
    1614:	80 81       	ld	r24, Z
    1616:	88 7f       	andi	r24, 0xF8	; 248
    1618:	80 83       	st	Z, r24
    161a:	08 95       	ret
    161c:	e1 ea       	ldi	r30, 0xA1	; 161
    161e:	f0 e0       	ldi	r31, 0x00	; 0
    1620:	80 81       	ld	r24, Z
    1622:	88 7f       	andi	r24, 0xF8	; 248
    1624:	80 83       	st	Z, r24
    1626:	08 95       	ret
    1628:	e1 e2       	ldi	r30, 0x21	; 33
    162a:	f1 e0       	ldi	r31, 0x01	; 1
    162c:	80 81       	ld	r24, Z
    162e:	88 7f       	andi	r24, 0xF8	; 248
    1630:	80 83       	st	Z, r24
    1632:	08 95       	ret

00001634 <_ZN6Timerr19setCompareInterruptEv>:
    1634:	fc 01       	movw	r30, r24
    1636:	80 81       	ld	r24, Z
    1638:	91 81       	ldd	r25, Z+1	; 0x01
    163a:	83 30       	cpi	r24, 0x03	; 3
    163c:	91 05       	cpc	r25, r1
    163e:	81 f0       	breq	.+32     	; 0x1660 <_ZN6Timerr19setCompareInterruptEv+0x2c>
    1640:	1c f4       	brge	.+6      	; 0x1648 <_ZN6Timerr19setCompareInterruptEv+0x14>
    1642:	01 97       	sbiw	r24, 0x01	; 1
    1644:	f1 f4       	brne	.+60     	; 0x1682 <_ZN6Timerr19setCompareInterruptEv+0x4e>
    1646:	06 c0       	rjmp	.+12     	; 0x1654 <_ZN6Timerr19setCompareInterruptEv+0x20>
    1648:	84 30       	cpi	r24, 0x04	; 4
    164a:	91 05       	cpc	r25, r1
    164c:	79 f0       	breq	.+30     	; 0x166c <_ZN6Timerr19setCompareInterruptEv+0x38>
    164e:	05 97       	sbiw	r24, 0x05	; 5
    1650:	c1 f4       	brne	.+48     	; 0x1682 <_ZN6Timerr19setCompareInterruptEv+0x4e>
    1652:	12 c0       	rjmp	.+36     	; 0x1678 <_ZN6Timerr19setCompareInterruptEv+0x44>
    1654:	ef e6       	ldi	r30, 0x6F	; 111
    1656:	f0 e0       	ldi	r31, 0x00	; 0
    1658:	80 81       	ld	r24, Z
    165a:	82 60       	ori	r24, 0x02	; 2
    165c:	80 83       	st	Z, r24
    165e:	08 95       	ret
    1660:	e1 e7       	ldi	r30, 0x71	; 113
    1662:	f0 e0       	ldi	r31, 0x00	; 0
    1664:	80 81       	ld	r24, Z
    1666:	82 60       	ori	r24, 0x02	; 2
    1668:	80 83       	st	Z, r24
    166a:	08 95       	ret
    166c:	e2 e7       	ldi	r30, 0x72	; 114
    166e:	f0 e0       	ldi	r31, 0x00	; 0
    1670:	80 81       	ld	r24, Z
    1672:	82 60       	ori	r24, 0x02	; 2
    1674:	80 83       	st	Z, r24
    1676:	08 95       	ret
    1678:	e3 e7       	ldi	r30, 0x73	; 115
    167a:	f0 e0       	ldi	r31, 0x00	; 0
    167c:	80 81       	ld	r24, Z
    167e:	82 60       	ori	r24, 0x02	; 2
    1680:	80 83       	st	Z, r24
    1682:	08 95       	ret

00001684 <_ZN6Timerr16startCustomTimerEi>:
	}
}
void Timerr::startCustomTimer(int milli_sec) {
	
	if(this->timer_no == 5) {
    1684:	fc 01       	movw	r30, r24
    1686:	80 81       	ld	r24, Z
    1688:	91 81       	ldd	r25, Z+1	; 0x01
    168a:	85 30       	cpi	r24, 0x05	; 5
    168c:	91 05       	cpc	r25, r1
    168e:	a9 f4       	brne	.+42     	; 0x16ba <_ZN6Timerr16startCustomTimerEi+0x36>
		int ocr = (15.625 * milli_sec);
    1690:	88 27       	eor	r24, r24
    1692:	77 fd       	sbrc	r23, 7
    1694:	80 95       	com	r24
    1696:	98 2f       	mov	r25, r24
    1698:	27 d1       	rcall	.+590    	; 0x18e8 <__floatsisf>
    169a:	20 e0       	ldi	r18, 0x00	; 0
    169c:	30 e0       	ldi	r19, 0x00	; 0
    169e:	4a e7       	ldi	r20, 0x7A	; 122
    16a0:	51 e4       	ldi	r21, 0x41	; 65
    16a2:	ae d1       	rcall	.+860    	; 0x1a00 <__mulsf3>
    16a4:	ee d0       	rcall	.+476    	; 0x1882 <__fixsfsi>
		OCR5A = ocr;
    16a6:	70 93 29 01 	sts	0x0129, r23
    16aa:	60 93 28 01 	sts	0x0128, r22
		START_TIMERR(5,0,1); //for proteus use 5,0,1 and for real life use 5,0,2
    16ae:	e1 e2       	ldi	r30, 0x21	; 33
    16b0:	f1 e0       	ldi	r31, 0x01	; 1
    16b2:	80 81       	ld	r24, Z
    16b4:	83 60       	ori	r24, 0x03	; 3
    16b6:	80 83       	st	Z, r24
    16b8:	08 95       	ret
	} else if(this->timer_no == 3) {
    16ba:	03 97       	sbiw	r24, 0x03	; 3
    16bc:	a1 f4       	brne	.+40     	; 0x16e6 <_ZN6Timerr16startCustomTimerEi+0x62>
		int ocr = (15.625 * milli_sec);
    16be:	88 27       	eor	r24, r24
    16c0:	77 fd       	sbrc	r23, 7
    16c2:	80 95       	com	r24
    16c4:	98 2f       	mov	r25, r24
    16c6:	10 d1       	rcall	.+544    	; 0x18e8 <__floatsisf>
    16c8:	20 e0       	ldi	r18, 0x00	; 0
    16ca:	30 e0       	ldi	r19, 0x00	; 0
    16cc:	4a e7       	ldi	r20, 0x7A	; 122
    16ce:	51 e4       	ldi	r21, 0x41	; 65
    16d0:	97 d1       	rcall	.+814    	; 0x1a00 <__mulsf3>
    16d2:	d7 d0       	rcall	.+430    	; 0x1882 <__fixsfsi>
		OCR3A = ocr;
    16d4:	70 93 99 00 	sts	0x0099, r23
    16d8:	60 93 98 00 	sts	0x0098, r22
		START_TIMERR(3,0,1); //for proteus use 3,0,1 and for real life use 3,0,2
    16dc:	e1 e9       	ldi	r30, 0x91	; 145
    16de:	f0 e0       	ldi	r31, 0x00	; 0
    16e0:	80 81       	ld	r24, Z
    16e2:	83 60       	ori	r24, 0x03	; 3
    16e4:	80 83       	st	Z, r24
    16e6:	08 95       	ret

000016e8 <__subsf3>:
    16e8:	50 58       	subi	r21, 0x80	; 128

000016ea <__addsf3>:
    16ea:	bb 27       	eor	r27, r27
    16ec:	aa 27       	eor	r26, r26
    16ee:	0e d0       	rcall	.+28     	; 0x170c <__addsf3x>
    16f0:	4d c1       	rjmp	.+666    	; 0x198c <__fp_round>
    16f2:	3e d1       	rcall	.+636    	; 0x1970 <__fp_pscA>
    16f4:	30 f0       	brcs	.+12     	; 0x1702 <__addsf3+0x18>
    16f6:	43 d1       	rcall	.+646    	; 0x197e <__fp_pscB>
    16f8:	20 f0       	brcs	.+8      	; 0x1702 <__addsf3+0x18>
    16fa:	31 f4       	brne	.+12     	; 0x1708 <__addsf3+0x1e>
    16fc:	9f 3f       	cpi	r25, 0xFF	; 255
    16fe:	11 f4       	brne	.+4      	; 0x1704 <__addsf3+0x1a>
    1700:	1e f4       	brtc	.+6      	; 0x1708 <__addsf3+0x1e>
    1702:	33 c1       	rjmp	.+614    	; 0x196a <__fp_nan>
    1704:	0e f4       	brtc	.+2      	; 0x1708 <__addsf3+0x1e>
    1706:	e0 95       	com	r30
    1708:	e7 fb       	bst	r30, 7
    170a:	29 c1       	rjmp	.+594    	; 0x195e <__fp_inf>

0000170c <__addsf3x>:
    170c:	e9 2f       	mov	r30, r25
    170e:	4f d1       	rcall	.+670    	; 0x19ae <__fp_split3>
    1710:	80 f3       	brcs	.-32     	; 0x16f2 <__addsf3+0x8>
    1712:	ba 17       	cp	r27, r26
    1714:	62 07       	cpc	r22, r18
    1716:	73 07       	cpc	r23, r19
    1718:	84 07       	cpc	r24, r20
    171a:	95 07       	cpc	r25, r21
    171c:	18 f0       	brcs	.+6      	; 0x1724 <__addsf3x+0x18>
    171e:	71 f4       	brne	.+28     	; 0x173c <__addsf3x+0x30>
    1720:	9e f5       	brtc	.+102    	; 0x1788 <__addsf3x+0x7c>
    1722:	67 c1       	rjmp	.+718    	; 0x19f2 <__fp_zero>
    1724:	0e f4       	brtc	.+2      	; 0x1728 <__addsf3x+0x1c>
    1726:	e0 95       	com	r30
    1728:	0b 2e       	mov	r0, r27
    172a:	ba 2f       	mov	r27, r26
    172c:	a0 2d       	mov	r26, r0
    172e:	0b 01       	movw	r0, r22
    1730:	b9 01       	movw	r22, r18
    1732:	90 01       	movw	r18, r0
    1734:	0c 01       	movw	r0, r24
    1736:	ca 01       	movw	r24, r20
    1738:	a0 01       	movw	r20, r0
    173a:	11 24       	eor	r1, r1
    173c:	ff 27       	eor	r31, r31
    173e:	59 1b       	sub	r21, r25
    1740:	99 f0       	breq	.+38     	; 0x1768 <__addsf3x+0x5c>
    1742:	59 3f       	cpi	r21, 0xF9	; 249
    1744:	50 f4       	brcc	.+20     	; 0x175a <__addsf3x+0x4e>
    1746:	50 3e       	cpi	r21, 0xE0	; 224
    1748:	68 f1       	brcs	.+90     	; 0x17a4 <__addsf3x+0x98>
    174a:	1a 16       	cp	r1, r26
    174c:	f0 40       	sbci	r31, 0x00	; 0
    174e:	a2 2f       	mov	r26, r18
    1750:	23 2f       	mov	r18, r19
    1752:	34 2f       	mov	r19, r20
    1754:	44 27       	eor	r20, r20
    1756:	58 5f       	subi	r21, 0xF8	; 248
    1758:	f3 cf       	rjmp	.-26     	; 0x1740 <__addsf3x+0x34>
    175a:	46 95       	lsr	r20
    175c:	37 95       	ror	r19
    175e:	27 95       	ror	r18
    1760:	a7 95       	ror	r26
    1762:	f0 40       	sbci	r31, 0x00	; 0
    1764:	53 95       	inc	r21
    1766:	c9 f7       	brne	.-14     	; 0x175a <__addsf3x+0x4e>
    1768:	7e f4       	brtc	.+30     	; 0x1788 <__addsf3x+0x7c>
    176a:	1f 16       	cp	r1, r31
    176c:	ba 0b       	sbc	r27, r26
    176e:	62 0b       	sbc	r22, r18
    1770:	73 0b       	sbc	r23, r19
    1772:	84 0b       	sbc	r24, r20
    1774:	ba f0       	brmi	.+46     	; 0x17a4 <__addsf3x+0x98>
    1776:	91 50       	subi	r25, 0x01	; 1
    1778:	a1 f0       	breq	.+40     	; 0x17a2 <__addsf3x+0x96>
    177a:	ff 0f       	add	r31, r31
    177c:	bb 1f       	adc	r27, r27
    177e:	66 1f       	adc	r22, r22
    1780:	77 1f       	adc	r23, r23
    1782:	88 1f       	adc	r24, r24
    1784:	c2 f7       	brpl	.-16     	; 0x1776 <__addsf3x+0x6a>
    1786:	0e c0       	rjmp	.+28     	; 0x17a4 <__addsf3x+0x98>
    1788:	ba 0f       	add	r27, r26
    178a:	62 1f       	adc	r22, r18
    178c:	73 1f       	adc	r23, r19
    178e:	84 1f       	adc	r24, r20
    1790:	48 f4       	brcc	.+18     	; 0x17a4 <__addsf3x+0x98>
    1792:	87 95       	ror	r24
    1794:	77 95       	ror	r23
    1796:	67 95       	ror	r22
    1798:	b7 95       	ror	r27
    179a:	f7 95       	ror	r31
    179c:	9e 3f       	cpi	r25, 0xFE	; 254
    179e:	08 f0       	brcs	.+2      	; 0x17a2 <__addsf3x+0x96>
    17a0:	b3 cf       	rjmp	.-154    	; 0x1708 <__addsf3+0x1e>
    17a2:	93 95       	inc	r25
    17a4:	88 0f       	add	r24, r24
    17a6:	08 f0       	brcs	.+2      	; 0x17aa <__addsf3x+0x9e>
    17a8:	99 27       	eor	r25, r25
    17aa:	ee 0f       	add	r30, r30
    17ac:	97 95       	ror	r25
    17ae:	87 95       	ror	r24
    17b0:	08 95       	ret

000017b2 <__divsf3>:
    17b2:	0c d0       	rcall	.+24     	; 0x17cc <__divsf3x>
    17b4:	eb c0       	rjmp	.+470    	; 0x198c <__fp_round>
    17b6:	e3 d0       	rcall	.+454    	; 0x197e <__fp_pscB>
    17b8:	40 f0       	brcs	.+16     	; 0x17ca <__divsf3+0x18>
    17ba:	da d0       	rcall	.+436    	; 0x1970 <__fp_pscA>
    17bc:	30 f0       	brcs	.+12     	; 0x17ca <__divsf3+0x18>
    17be:	21 f4       	brne	.+8      	; 0x17c8 <__divsf3+0x16>
    17c0:	5f 3f       	cpi	r21, 0xFF	; 255
    17c2:	19 f0       	breq	.+6      	; 0x17ca <__divsf3+0x18>
    17c4:	cc c0       	rjmp	.+408    	; 0x195e <__fp_inf>
    17c6:	51 11       	cpse	r21, r1
    17c8:	15 c1       	rjmp	.+554    	; 0x19f4 <__fp_szero>
    17ca:	cf c0       	rjmp	.+414    	; 0x196a <__fp_nan>

000017cc <__divsf3x>:
    17cc:	f0 d0       	rcall	.+480    	; 0x19ae <__fp_split3>
    17ce:	98 f3       	brcs	.-26     	; 0x17b6 <__divsf3+0x4>

000017d0 <__divsf3_pse>:
    17d0:	99 23       	and	r25, r25
    17d2:	c9 f3       	breq	.-14     	; 0x17c6 <__divsf3+0x14>
    17d4:	55 23       	and	r21, r21
    17d6:	b1 f3       	breq	.-20     	; 0x17c4 <__divsf3+0x12>
    17d8:	95 1b       	sub	r25, r21
    17da:	55 0b       	sbc	r21, r21
    17dc:	bb 27       	eor	r27, r27
    17de:	aa 27       	eor	r26, r26
    17e0:	62 17       	cp	r22, r18
    17e2:	73 07       	cpc	r23, r19
    17e4:	84 07       	cpc	r24, r20
    17e6:	38 f0       	brcs	.+14     	; 0x17f6 <__divsf3_pse+0x26>
    17e8:	9f 5f       	subi	r25, 0xFF	; 255
    17ea:	5f 4f       	sbci	r21, 0xFF	; 255
    17ec:	22 0f       	add	r18, r18
    17ee:	33 1f       	adc	r19, r19
    17f0:	44 1f       	adc	r20, r20
    17f2:	aa 1f       	adc	r26, r26
    17f4:	a9 f3       	breq	.-22     	; 0x17e0 <__divsf3_pse+0x10>
    17f6:	33 d0       	rcall	.+102    	; 0x185e <__divsf3_pse+0x8e>
    17f8:	0e 2e       	mov	r0, r30
    17fa:	3a f0       	brmi	.+14     	; 0x180a <__divsf3_pse+0x3a>
    17fc:	e0 e8       	ldi	r30, 0x80	; 128
    17fe:	30 d0       	rcall	.+96     	; 0x1860 <__divsf3_pse+0x90>
    1800:	91 50       	subi	r25, 0x01	; 1
    1802:	50 40       	sbci	r21, 0x00	; 0
    1804:	e6 95       	lsr	r30
    1806:	00 1c       	adc	r0, r0
    1808:	ca f7       	brpl	.-14     	; 0x17fc <__divsf3_pse+0x2c>
    180a:	29 d0       	rcall	.+82     	; 0x185e <__divsf3_pse+0x8e>
    180c:	fe 2f       	mov	r31, r30
    180e:	27 d0       	rcall	.+78     	; 0x185e <__divsf3_pse+0x8e>
    1810:	66 0f       	add	r22, r22
    1812:	77 1f       	adc	r23, r23
    1814:	88 1f       	adc	r24, r24
    1816:	bb 1f       	adc	r27, r27
    1818:	26 17       	cp	r18, r22
    181a:	37 07       	cpc	r19, r23
    181c:	48 07       	cpc	r20, r24
    181e:	ab 07       	cpc	r26, r27
    1820:	b0 e8       	ldi	r27, 0x80	; 128
    1822:	09 f0       	breq	.+2      	; 0x1826 <__divsf3_pse+0x56>
    1824:	bb 0b       	sbc	r27, r27
    1826:	80 2d       	mov	r24, r0
    1828:	bf 01       	movw	r22, r30
    182a:	ff 27       	eor	r31, r31
    182c:	93 58       	subi	r25, 0x83	; 131
    182e:	5f 4f       	sbci	r21, 0xFF	; 255
    1830:	2a f0       	brmi	.+10     	; 0x183c <__divsf3_pse+0x6c>
    1832:	9e 3f       	cpi	r25, 0xFE	; 254
    1834:	51 05       	cpc	r21, r1
    1836:	68 f0       	brcs	.+26     	; 0x1852 <__divsf3_pse+0x82>
    1838:	92 c0       	rjmp	.+292    	; 0x195e <__fp_inf>
    183a:	dc c0       	rjmp	.+440    	; 0x19f4 <__fp_szero>
    183c:	5f 3f       	cpi	r21, 0xFF	; 255
    183e:	ec f3       	brlt	.-6      	; 0x183a <__divsf3_pse+0x6a>
    1840:	98 3e       	cpi	r25, 0xE8	; 232
    1842:	dc f3       	brlt	.-10     	; 0x183a <__divsf3_pse+0x6a>
    1844:	86 95       	lsr	r24
    1846:	77 95       	ror	r23
    1848:	67 95       	ror	r22
    184a:	b7 95       	ror	r27
    184c:	f7 95       	ror	r31
    184e:	9f 5f       	subi	r25, 0xFF	; 255
    1850:	c9 f7       	brne	.-14     	; 0x1844 <__divsf3_pse+0x74>
    1852:	88 0f       	add	r24, r24
    1854:	91 1d       	adc	r25, r1
    1856:	96 95       	lsr	r25
    1858:	87 95       	ror	r24
    185a:	97 f9       	bld	r25, 7
    185c:	08 95       	ret
    185e:	e1 e0       	ldi	r30, 0x01	; 1
    1860:	66 0f       	add	r22, r22
    1862:	77 1f       	adc	r23, r23
    1864:	88 1f       	adc	r24, r24
    1866:	bb 1f       	adc	r27, r27
    1868:	62 17       	cp	r22, r18
    186a:	73 07       	cpc	r23, r19
    186c:	84 07       	cpc	r24, r20
    186e:	ba 07       	cpc	r27, r26
    1870:	20 f0       	brcs	.+8      	; 0x187a <__divsf3_pse+0xaa>
    1872:	62 1b       	sub	r22, r18
    1874:	73 0b       	sbc	r23, r19
    1876:	84 0b       	sbc	r24, r20
    1878:	ba 0b       	sbc	r27, r26
    187a:	ee 1f       	adc	r30, r30
    187c:	88 f7       	brcc	.-30     	; 0x1860 <__divsf3_pse+0x90>
    187e:	e0 95       	com	r30
    1880:	08 95       	ret

00001882 <__fixsfsi>:
    1882:	04 d0       	rcall	.+8      	; 0x188c <__fixunssfsi>
    1884:	68 94       	set
    1886:	b1 11       	cpse	r27, r1
    1888:	b5 c0       	rjmp	.+362    	; 0x19f4 <__fp_szero>
    188a:	08 95       	ret

0000188c <__fixunssfsi>:
    188c:	98 d0       	rcall	.+304    	; 0x19be <__fp_splitA>
    188e:	88 f0       	brcs	.+34     	; 0x18b2 <__fixunssfsi+0x26>
    1890:	9f 57       	subi	r25, 0x7F	; 127
    1892:	90 f0       	brcs	.+36     	; 0x18b8 <__fixunssfsi+0x2c>
    1894:	b9 2f       	mov	r27, r25
    1896:	99 27       	eor	r25, r25
    1898:	b7 51       	subi	r27, 0x17	; 23
    189a:	a0 f0       	brcs	.+40     	; 0x18c4 <__fixunssfsi+0x38>
    189c:	d1 f0       	breq	.+52     	; 0x18d2 <__fixunssfsi+0x46>
    189e:	66 0f       	add	r22, r22
    18a0:	77 1f       	adc	r23, r23
    18a2:	88 1f       	adc	r24, r24
    18a4:	99 1f       	adc	r25, r25
    18a6:	1a f0       	brmi	.+6      	; 0x18ae <__fixunssfsi+0x22>
    18a8:	ba 95       	dec	r27
    18aa:	c9 f7       	brne	.-14     	; 0x189e <__fixunssfsi+0x12>
    18ac:	12 c0       	rjmp	.+36     	; 0x18d2 <__fixunssfsi+0x46>
    18ae:	b1 30       	cpi	r27, 0x01	; 1
    18b0:	81 f0       	breq	.+32     	; 0x18d2 <__fixunssfsi+0x46>
    18b2:	9f d0       	rcall	.+318    	; 0x19f2 <__fp_zero>
    18b4:	b1 e0       	ldi	r27, 0x01	; 1
    18b6:	08 95       	ret
    18b8:	9c c0       	rjmp	.+312    	; 0x19f2 <__fp_zero>
    18ba:	67 2f       	mov	r22, r23
    18bc:	78 2f       	mov	r23, r24
    18be:	88 27       	eor	r24, r24
    18c0:	b8 5f       	subi	r27, 0xF8	; 248
    18c2:	39 f0       	breq	.+14     	; 0x18d2 <__fixunssfsi+0x46>
    18c4:	b9 3f       	cpi	r27, 0xF9	; 249
    18c6:	cc f3       	brlt	.-14     	; 0x18ba <__fixunssfsi+0x2e>
    18c8:	86 95       	lsr	r24
    18ca:	77 95       	ror	r23
    18cc:	67 95       	ror	r22
    18ce:	b3 95       	inc	r27
    18d0:	d9 f7       	brne	.-10     	; 0x18c8 <__fixunssfsi+0x3c>
    18d2:	3e f4       	brtc	.+14     	; 0x18e2 <__fixunssfsi+0x56>
    18d4:	90 95       	com	r25
    18d6:	80 95       	com	r24
    18d8:	70 95       	com	r23
    18da:	61 95       	neg	r22
    18dc:	7f 4f       	sbci	r23, 0xFF	; 255
    18de:	8f 4f       	sbci	r24, 0xFF	; 255
    18e0:	9f 4f       	sbci	r25, 0xFF	; 255
    18e2:	08 95       	ret

000018e4 <__floatunsisf>:
    18e4:	e8 94       	clt
    18e6:	09 c0       	rjmp	.+18     	; 0x18fa <__floatsisf+0x12>

000018e8 <__floatsisf>:
    18e8:	97 fb       	bst	r25, 7
    18ea:	3e f4       	brtc	.+14     	; 0x18fa <__floatsisf+0x12>
    18ec:	90 95       	com	r25
    18ee:	80 95       	com	r24
    18f0:	70 95       	com	r23
    18f2:	61 95       	neg	r22
    18f4:	7f 4f       	sbci	r23, 0xFF	; 255
    18f6:	8f 4f       	sbci	r24, 0xFF	; 255
    18f8:	9f 4f       	sbci	r25, 0xFF	; 255
    18fa:	99 23       	and	r25, r25
    18fc:	a9 f0       	breq	.+42     	; 0x1928 <__floatsisf+0x40>
    18fe:	f9 2f       	mov	r31, r25
    1900:	96 e9       	ldi	r25, 0x96	; 150
    1902:	bb 27       	eor	r27, r27
    1904:	93 95       	inc	r25
    1906:	f6 95       	lsr	r31
    1908:	87 95       	ror	r24
    190a:	77 95       	ror	r23
    190c:	67 95       	ror	r22
    190e:	b7 95       	ror	r27
    1910:	f1 11       	cpse	r31, r1
    1912:	f8 cf       	rjmp	.-16     	; 0x1904 <__floatsisf+0x1c>
    1914:	fa f4       	brpl	.+62     	; 0x1954 <__floatsisf+0x6c>
    1916:	bb 0f       	add	r27, r27
    1918:	11 f4       	brne	.+4      	; 0x191e <__floatsisf+0x36>
    191a:	60 ff       	sbrs	r22, 0
    191c:	1b c0       	rjmp	.+54     	; 0x1954 <__floatsisf+0x6c>
    191e:	6f 5f       	subi	r22, 0xFF	; 255
    1920:	7f 4f       	sbci	r23, 0xFF	; 255
    1922:	8f 4f       	sbci	r24, 0xFF	; 255
    1924:	9f 4f       	sbci	r25, 0xFF	; 255
    1926:	16 c0       	rjmp	.+44     	; 0x1954 <__floatsisf+0x6c>
    1928:	88 23       	and	r24, r24
    192a:	11 f0       	breq	.+4      	; 0x1930 <__floatsisf+0x48>
    192c:	96 e9       	ldi	r25, 0x96	; 150
    192e:	11 c0       	rjmp	.+34     	; 0x1952 <__floatsisf+0x6a>
    1930:	77 23       	and	r23, r23
    1932:	21 f0       	breq	.+8      	; 0x193c <__floatsisf+0x54>
    1934:	9e e8       	ldi	r25, 0x8E	; 142
    1936:	87 2f       	mov	r24, r23
    1938:	76 2f       	mov	r23, r22
    193a:	05 c0       	rjmp	.+10     	; 0x1946 <__floatsisf+0x5e>
    193c:	66 23       	and	r22, r22
    193e:	71 f0       	breq	.+28     	; 0x195c <__floatsisf+0x74>
    1940:	96 e8       	ldi	r25, 0x86	; 134
    1942:	86 2f       	mov	r24, r22
    1944:	70 e0       	ldi	r23, 0x00	; 0
    1946:	60 e0       	ldi	r22, 0x00	; 0
    1948:	2a f0       	brmi	.+10     	; 0x1954 <__floatsisf+0x6c>
    194a:	9a 95       	dec	r25
    194c:	66 0f       	add	r22, r22
    194e:	77 1f       	adc	r23, r23
    1950:	88 1f       	adc	r24, r24
    1952:	da f7       	brpl	.-10     	; 0x194a <__floatsisf+0x62>
    1954:	88 0f       	add	r24, r24
    1956:	96 95       	lsr	r25
    1958:	87 95       	ror	r24
    195a:	97 f9       	bld	r25, 7
    195c:	08 95       	ret

0000195e <__fp_inf>:
    195e:	97 f9       	bld	r25, 7
    1960:	9f 67       	ori	r25, 0x7F	; 127
    1962:	80 e8       	ldi	r24, 0x80	; 128
    1964:	70 e0       	ldi	r23, 0x00	; 0
    1966:	60 e0       	ldi	r22, 0x00	; 0
    1968:	08 95       	ret

0000196a <__fp_nan>:
    196a:	9f ef       	ldi	r25, 0xFF	; 255
    196c:	80 ec       	ldi	r24, 0xC0	; 192
    196e:	08 95       	ret

00001970 <__fp_pscA>:
    1970:	00 24       	eor	r0, r0
    1972:	0a 94       	dec	r0
    1974:	16 16       	cp	r1, r22
    1976:	17 06       	cpc	r1, r23
    1978:	18 06       	cpc	r1, r24
    197a:	09 06       	cpc	r0, r25
    197c:	08 95       	ret

0000197e <__fp_pscB>:
    197e:	00 24       	eor	r0, r0
    1980:	0a 94       	dec	r0
    1982:	12 16       	cp	r1, r18
    1984:	13 06       	cpc	r1, r19
    1986:	14 06       	cpc	r1, r20
    1988:	05 06       	cpc	r0, r21
    198a:	08 95       	ret

0000198c <__fp_round>:
    198c:	09 2e       	mov	r0, r25
    198e:	03 94       	inc	r0
    1990:	00 0c       	add	r0, r0
    1992:	11 f4       	brne	.+4      	; 0x1998 <__fp_round+0xc>
    1994:	88 23       	and	r24, r24
    1996:	52 f0       	brmi	.+20     	; 0x19ac <__fp_round+0x20>
    1998:	bb 0f       	add	r27, r27
    199a:	40 f4       	brcc	.+16     	; 0x19ac <__fp_round+0x20>
    199c:	bf 2b       	or	r27, r31
    199e:	11 f4       	brne	.+4      	; 0x19a4 <__fp_round+0x18>
    19a0:	60 ff       	sbrs	r22, 0
    19a2:	04 c0       	rjmp	.+8      	; 0x19ac <__fp_round+0x20>
    19a4:	6f 5f       	subi	r22, 0xFF	; 255
    19a6:	7f 4f       	sbci	r23, 0xFF	; 255
    19a8:	8f 4f       	sbci	r24, 0xFF	; 255
    19aa:	9f 4f       	sbci	r25, 0xFF	; 255
    19ac:	08 95       	ret

000019ae <__fp_split3>:
    19ae:	57 fd       	sbrc	r21, 7
    19b0:	90 58       	subi	r25, 0x80	; 128
    19b2:	44 0f       	add	r20, r20
    19b4:	55 1f       	adc	r21, r21
    19b6:	59 f0       	breq	.+22     	; 0x19ce <__fp_splitA+0x10>
    19b8:	5f 3f       	cpi	r21, 0xFF	; 255
    19ba:	71 f0       	breq	.+28     	; 0x19d8 <__fp_splitA+0x1a>
    19bc:	47 95       	ror	r20

000019be <__fp_splitA>:
    19be:	88 0f       	add	r24, r24
    19c0:	97 fb       	bst	r25, 7
    19c2:	99 1f       	adc	r25, r25
    19c4:	61 f0       	breq	.+24     	; 0x19de <__fp_splitA+0x20>
    19c6:	9f 3f       	cpi	r25, 0xFF	; 255
    19c8:	79 f0       	breq	.+30     	; 0x19e8 <__fp_splitA+0x2a>
    19ca:	87 95       	ror	r24
    19cc:	08 95       	ret
    19ce:	12 16       	cp	r1, r18
    19d0:	13 06       	cpc	r1, r19
    19d2:	14 06       	cpc	r1, r20
    19d4:	55 1f       	adc	r21, r21
    19d6:	f2 cf       	rjmp	.-28     	; 0x19bc <__fp_split3+0xe>
    19d8:	46 95       	lsr	r20
    19da:	f1 df       	rcall	.-30     	; 0x19be <__fp_splitA>
    19dc:	08 c0       	rjmp	.+16     	; 0x19ee <__fp_splitA+0x30>
    19de:	16 16       	cp	r1, r22
    19e0:	17 06       	cpc	r1, r23
    19e2:	18 06       	cpc	r1, r24
    19e4:	99 1f       	adc	r25, r25
    19e6:	f1 cf       	rjmp	.-30     	; 0x19ca <__fp_splitA+0xc>
    19e8:	86 95       	lsr	r24
    19ea:	71 05       	cpc	r23, r1
    19ec:	61 05       	cpc	r22, r1
    19ee:	08 94       	sec
    19f0:	08 95       	ret

000019f2 <__fp_zero>:
    19f2:	e8 94       	clt

000019f4 <__fp_szero>:
    19f4:	bb 27       	eor	r27, r27
    19f6:	66 27       	eor	r22, r22
    19f8:	77 27       	eor	r23, r23
    19fa:	cb 01       	movw	r24, r22
    19fc:	97 f9       	bld	r25, 7
    19fe:	08 95       	ret

00001a00 <__mulsf3>:
    1a00:	0b d0       	rcall	.+22     	; 0x1a18 <__mulsf3x>
    1a02:	c4 cf       	rjmp	.-120    	; 0x198c <__fp_round>
    1a04:	b5 df       	rcall	.-150    	; 0x1970 <__fp_pscA>
    1a06:	28 f0       	brcs	.+10     	; 0x1a12 <__mulsf3+0x12>
    1a08:	ba df       	rcall	.-140    	; 0x197e <__fp_pscB>
    1a0a:	18 f0       	brcs	.+6      	; 0x1a12 <__mulsf3+0x12>
    1a0c:	95 23       	and	r25, r21
    1a0e:	09 f0       	breq	.+2      	; 0x1a12 <__mulsf3+0x12>
    1a10:	a6 cf       	rjmp	.-180    	; 0x195e <__fp_inf>
    1a12:	ab cf       	rjmp	.-170    	; 0x196a <__fp_nan>
    1a14:	11 24       	eor	r1, r1
    1a16:	ee cf       	rjmp	.-36     	; 0x19f4 <__fp_szero>

00001a18 <__mulsf3x>:
    1a18:	ca df       	rcall	.-108    	; 0x19ae <__fp_split3>
    1a1a:	a0 f3       	brcs	.-24     	; 0x1a04 <__mulsf3+0x4>

00001a1c <__mulsf3_pse>:
    1a1c:	95 9f       	mul	r25, r21
    1a1e:	d1 f3       	breq	.-12     	; 0x1a14 <__mulsf3+0x14>
    1a20:	95 0f       	add	r25, r21
    1a22:	50 e0       	ldi	r21, 0x00	; 0
    1a24:	55 1f       	adc	r21, r21
    1a26:	62 9f       	mul	r22, r18
    1a28:	f0 01       	movw	r30, r0
    1a2a:	72 9f       	mul	r23, r18
    1a2c:	bb 27       	eor	r27, r27
    1a2e:	f0 0d       	add	r31, r0
    1a30:	b1 1d       	adc	r27, r1
    1a32:	63 9f       	mul	r22, r19
    1a34:	aa 27       	eor	r26, r26
    1a36:	f0 0d       	add	r31, r0
    1a38:	b1 1d       	adc	r27, r1
    1a3a:	aa 1f       	adc	r26, r26
    1a3c:	64 9f       	mul	r22, r20
    1a3e:	66 27       	eor	r22, r22
    1a40:	b0 0d       	add	r27, r0
    1a42:	a1 1d       	adc	r26, r1
    1a44:	66 1f       	adc	r22, r22
    1a46:	82 9f       	mul	r24, r18
    1a48:	22 27       	eor	r18, r18
    1a4a:	b0 0d       	add	r27, r0
    1a4c:	a1 1d       	adc	r26, r1
    1a4e:	62 1f       	adc	r22, r18
    1a50:	73 9f       	mul	r23, r19
    1a52:	b0 0d       	add	r27, r0
    1a54:	a1 1d       	adc	r26, r1
    1a56:	62 1f       	adc	r22, r18
    1a58:	83 9f       	mul	r24, r19
    1a5a:	a0 0d       	add	r26, r0
    1a5c:	61 1d       	adc	r22, r1
    1a5e:	22 1f       	adc	r18, r18
    1a60:	74 9f       	mul	r23, r20
    1a62:	33 27       	eor	r19, r19
    1a64:	a0 0d       	add	r26, r0
    1a66:	61 1d       	adc	r22, r1
    1a68:	23 1f       	adc	r18, r19
    1a6a:	84 9f       	mul	r24, r20
    1a6c:	60 0d       	add	r22, r0
    1a6e:	21 1d       	adc	r18, r1
    1a70:	82 2f       	mov	r24, r18
    1a72:	76 2f       	mov	r23, r22
    1a74:	6a 2f       	mov	r22, r26
    1a76:	11 24       	eor	r1, r1
    1a78:	9f 57       	subi	r25, 0x7F	; 127
    1a7a:	50 40       	sbci	r21, 0x00	; 0
    1a7c:	8a f0       	brmi	.+34     	; 0x1aa0 <__mulsf3_pse+0x84>
    1a7e:	e1 f0       	breq	.+56     	; 0x1ab8 <__mulsf3_pse+0x9c>
    1a80:	88 23       	and	r24, r24
    1a82:	4a f0       	brmi	.+18     	; 0x1a96 <__mulsf3_pse+0x7a>
    1a84:	ee 0f       	add	r30, r30
    1a86:	ff 1f       	adc	r31, r31
    1a88:	bb 1f       	adc	r27, r27
    1a8a:	66 1f       	adc	r22, r22
    1a8c:	77 1f       	adc	r23, r23
    1a8e:	88 1f       	adc	r24, r24
    1a90:	91 50       	subi	r25, 0x01	; 1
    1a92:	50 40       	sbci	r21, 0x00	; 0
    1a94:	a9 f7       	brne	.-22     	; 0x1a80 <__mulsf3_pse+0x64>
    1a96:	9e 3f       	cpi	r25, 0xFE	; 254
    1a98:	51 05       	cpc	r21, r1
    1a9a:	70 f0       	brcs	.+28     	; 0x1ab8 <__mulsf3_pse+0x9c>
    1a9c:	60 cf       	rjmp	.-320    	; 0x195e <__fp_inf>
    1a9e:	aa cf       	rjmp	.-172    	; 0x19f4 <__fp_szero>
    1aa0:	5f 3f       	cpi	r21, 0xFF	; 255
    1aa2:	ec f3       	brlt	.-6      	; 0x1a9e <__mulsf3_pse+0x82>
    1aa4:	98 3e       	cpi	r25, 0xE8	; 232
    1aa6:	dc f3       	brlt	.-10     	; 0x1a9e <__mulsf3_pse+0x82>
    1aa8:	86 95       	lsr	r24
    1aaa:	77 95       	ror	r23
    1aac:	67 95       	ror	r22
    1aae:	b7 95       	ror	r27
    1ab0:	f7 95       	ror	r31
    1ab2:	e7 95       	ror	r30
    1ab4:	9f 5f       	subi	r25, 0xFF	; 255
    1ab6:	c1 f7       	brne	.-16     	; 0x1aa8 <__mulsf3_pse+0x8c>
    1ab8:	fe 2b       	or	r31, r30
    1aba:	88 0f       	add	r24, r24
    1abc:	91 1d       	adc	r25, r1
    1abe:	96 95       	lsr	r25
    1ac0:	87 95       	ror	r24
    1ac2:	97 f9       	bld	r25, 7
    1ac4:	08 95       	ret

00001ac6 <__udivmodhi4>:
    1ac6:	aa 1b       	sub	r26, r26
    1ac8:	bb 1b       	sub	r27, r27
    1aca:	51 e1       	ldi	r21, 0x11	; 17
    1acc:	07 c0       	rjmp	.+14     	; 0x1adc <__udivmodhi4_ep>

00001ace <__udivmodhi4_loop>:
    1ace:	aa 1f       	adc	r26, r26
    1ad0:	bb 1f       	adc	r27, r27
    1ad2:	a6 17       	cp	r26, r22
    1ad4:	b7 07       	cpc	r27, r23
    1ad6:	10 f0       	brcs	.+4      	; 0x1adc <__udivmodhi4_ep>
    1ad8:	a6 1b       	sub	r26, r22
    1ada:	b7 0b       	sbc	r27, r23

00001adc <__udivmodhi4_ep>:
    1adc:	88 1f       	adc	r24, r24
    1ade:	99 1f       	adc	r25, r25
    1ae0:	5a 95       	dec	r21
    1ae2:	a9 f7       	brne	.-22     	; 0x1ace <__udivmodhi4_loop>
    1ae4:	80 95       	com	r24
    1ae6:	90 95       	com	r25
    1ae8:	bc 01       	movw	r22, r24
    1aea:	cd 01       	movw	r24, r26
    1aec:	08 95       	ret

00001aee <__tablejump_elpm__>:
    1aee:	07 90       	elpm	r0, Z+
    1af0:	f6 91       	elpm	r31, Z
    1af2:	e0 2d       	mov	r30, r0
    1af4:	19 94       	eijmp

00001af6 <itoa>:
    1af6:	fb 01       	movw	r30, r22
    1af8:	9f 01       	movw	r18, r30
    1afa:	e8 94       	clt
    1afc:	42 30       	cpi	r20, 0x02	; 2
    1afe:	bc f0       	brlt	.+46     	; 0x1b2e <itoa+0x38>
    1b00:	45 32       	cpi	r20, 0x25	; 37
    1b02:	ac f4       	brge	.+42     	; 0x1b2e <itoa+0x38>
    1b04:	4a 30       	cpi	r20, 0x0A	; 10
    1b06:	29 f4       	brne	.+10     	; 0x1b12 <itoa+0x1c>
    1b08:	97 fb       	bst	r25, 7
    1b0a:	1e f4       	brtc	.+6      	; 0x1b12 <itoa+0x1c>
    1b0c:	90 95       	com	r25
    1b0e:	81 95       	neg	r24
    1b10:	9f 4f       	sbci	r25, 0xFF	; 255
    1b12:	64 2f       	mov	r22, r20
    1b14:	77 27       	eor	r23, r23
    1b16:	d7 df       	rcall	.-82     	; 0x1ac6 <__udivmodhi4>
    1b18:	80 5d       	subi	r24, 0xD0	; 208
    1b1a:	8a 33       	cpi	r24, 0x3A	; 58
    1b1c:	0c f0       	brlt	.+2      	; 0x1b20 <itoa+0x2a>
    1b1e:	89 5d       	subi	r24, 0xD9	; 217
    1b20:	81 93       	st	Z+, r24
    1b22:	cb 01       	movw	r24, r22
    1b24:	00 97       	sbiw	r24, 0x00	; 0
    1b26:	a9 f7       	brne	.-22     	; 0x1b12 <itoa+0x1c>
    1b28:	16 f4       	brtc	.+4      	; 0x1b2e <itoa+0x38>
    1b2a:	5d e2       	ldi	r21, 0x2D	; 45
    1b2c:	51 93       	st	Z+, r21
    1b2e:	10 82       	st	Z, r1
    1b30:	c9 01       	movw	r24, r18
    1b32:	00 c0       	rjmp	.+0      	; 0x1b34 <strrev>

00001b34 <strrev>:
    1b34:	dc 01       	movw	r26, r24
    1b36:	fc 01       	movw	r30, r24
    1b38:	67 2f       	mov	r22, r23
    1b3a:	71 91       	ld	r23, Z+
    1b3c:	77 23       	and	r23, r23
    1b3e:	e1 f7       	brne	.-8      	; 0x1b38 <strrev+0x4>
    1b40:	32 97       	sbiw	r30, 0x02	; 2
    1b42:	04 c0       	rjmp	.+8      	; 0x1b4c <strrev+0x18>
    1b44:	7c 91       	ld	r23, X
    1b46:	6d 93       	st	X+, r22
    1b48:	70 83       	st	Z, r23
    1b4a:	62 91       	ld	r22, -Z
    1b4c:	ae 17       	cp	r26, r30
    1b4e:	bf 07       	cpc	r27, r31
    1b50:	c8 f3       	brcs	.-14     	; 0x1b44 <strrev+0x10>
    1b52:	08 95       	ret

00001b54 <_exit>:
    1b54:	f8 94       	cli

00001b56 <__stop_program>:
    1b56:	ff cf       	rjmp	.-2      	; 0x1b56 <__stop_program>
